ARM GAS  C:\Users\Johann\AppData\Local\Temp\ccHrT10d.s 			page 1


   1              		.cpu cortex-m0
   2              		.fpu softvfp
   3              		.eabi_attribute 20, 1	@ Tag_ABI_FP_denormal
   4              		.eabi_attribute 21, 1	@ Tag_ABI_FP_exceptions
   5              		.eabi_attribute 23, 3	@ Tag_ABI_FP_number_model
   6              		.eabi_attribute 24, 1	@ Tag_ABI_align8_needed
   7              		.eabi_attribute 25, 1	@ Tag_ABI_align8_preserved
   8              		.eabi_attribute 26, 1	@ Tag_ABI_enum_size
   9              		.eabi_attribute 30, 4	@ Tag_ABI_optimization_goals
  10              		.eabi_attribute 34, 0	@ Tag_CPU_unaligned_access
  11              		.eabi_attribute 18, 4	@ Tag_ABI_PCS_wchar_t
  12              		.file	"main.c"
  13              	@ GNU C (GCC) version 4.7.2 (arm-none-eabi)
  14              	@	compiled by GNU C version 3.4.5 (mingw-vista special r3), GMP version 5.0.4, MPFR version 2.4.2, 
  15              	@ GGC heuristics: --param ggc-min-expand=100 --param ggc-min-heapsize=131072
  16              	@ options passed:  -I .
  17              	@ -I ..\STM32F0-Discovery_FW_V1.0.0\Libraries\CMSIS\ST\STM32F0xx\Include
  18              	@ -I ..\STM32F0-Discovery_FW_V1.0.0\Libraries\CMSIS\Include
  19              	@ -I ..\STM32F0-Discovery_FW_V1.0.0\Libraries\STM32F0xx_StdPeriph_Driver\inc
  20              	@ -I ..\STM32F0-Discovery_FW_V1.0.0\Utilities\STM32F0-Discovery -I .\inc
  21              	@ -imultilib thumb/v6m
  22              	@ -iprefix c:\yagarto-20121222\bin\../lib/gcc/arm-none-eabi/4.7.2/
  23              	@ -MD .\src\main.d -MF .dep\main.o.d -MP -MQ .\src\main.o
  24              	@ -D__USES_INITFINI__ -D STM32F0XX -D USE_STDPERIPH_DRIVER
  25              	@ -D RUN_FROM_FLASH=1 .\src\main.c -mcpu=cortex-m0 -mthumb
  26              	@ -auxbase-strip .\src\main.o -gdwarf-2 -Os -Wall -Wstrict-prototypes
  27              	@ -fomit-frame-pointer -fverbose-asm
  28              	@ options enabled:  -fauto-inc-dec -fbranch-count-reg -fcaller-saves
  29              	@ -fcombine-stack-adjustments -fcommon -fcompare-elim -fcprop-registers
  30              	@ -fcrossjumping -fcse-follow-jumps -fdebug-types-section -fdefer-pop
  31              	@ -fdelete-null-pointer-checks -fdevirtualize -fdwarf2-cfi-asm
  32              	@ -fearly-inlining -feliminate-unused-debug-types -fexpensive-optimizations
  33              	@ -fforward-propagate -ffunction-cse -fgcse -fgcse-lm -fgnu-runtime
  34              	@ -fguess-branch-probability -fident -fif-conversion -fif-conversion2
  35              	@ -findirect-inlining -finline -finline-atomics -finline-functions
  36              	@ -finline-functions-called-once -finline-small-functions -fipa-cp
  37              	@ -fipa-profile -fipa-pure-const -fipa-reference -fipa-sra
  38              	@ -fira-share-save-slots -fira-share-spill-slots -fivopts
  39              	@ -fkeep-static-consts -fleading-underscore -fmath-errno -fmerge-constants
  40              	@ -fmerge-debug-strings -fmove-loop-invariants -fomit-frame-pointer
  41              	@ -foptimize-register-move -foptimize-sibling-calls -fpartial-inlining
  42              	@ -fpeephole -fpeephole2 -fprefetch-loop-arrays -freg-struct-return
  43              	@ -fregmove -freorder-blocks -freorder-functions -frerun-cse-after-loop
  44              	@ -fsched-critical-path-heuristic -fsched-dep-count-heuristic
  45              	@ -fsched-group-heuristic -fsched-interblock -fsched-last-insn-heuristic
  46              	@ -fsched-rank-heuristic -fsched-spec -fsched-spec-insn-heuristic
  47              	@ -fsched-stalled-insns-dep -fschedule-insns2 -fsection-anchors
  48              	@ -fshow-column -fshrink-wrap -fsigned-zeros -fsplit-ivs-in-unroller
  49              	@ -fsplit-wide-types -fstrict-aliasing -fstrict-overflow
  50              	@ -fstrict-volatile-bitfields -fthread-jumps -ftoplevel-reorder
  51              	@ -ftrapping-math -ftree-bit-ccp -ftree-builtin-call-dce -ftree-ccp
  52              	@ -ftree-ch -ftree-copy-prop -ftree-copyrename -ftree-cselim -ftree-dce
  53              	@ -ftree-dominator-opts -ftree-dse -ftree-forwprop -ftree-fre
  54              	@ -ftree-loop-if-convert -ftree-loop-im -ftree-loop-ivcanon
  55              	@ -ftree-loop-optimize -ftree-parallelize-loops= -ftree-phiprop -ftree-pre
  56              	@ -ftree-pta -ftree-reassoc -ftree-scev-cprop -ftree-sink
  57              	@ -ftree-slp-vectorize -ftree-sra -ftree-switch-conversion
ARM GAS  C:\Users\Johann\AppData\Local\Temp\ccHrT10d.s 			page 2


  58              	@ -ftree-tail-merge -ftree-ter -ftree-vect-loop-version -ftree-vrp
  59              	@ -funit-at-a-time -fvar-tracking -fvar-tracking-assignments -fverbose-asm
  60              	@ -fzero-initialized-in-bss -mlittle-endian -msched-prolog -mthumb
  61              	@ -mvectorize-with-neon-quad
  62              	
  63              		.text
  64              	.Ltext0:
  65              		.cfi_sections	.debug_frame
  66              		.align	1
  67              		.global	delay
  68              		.code	16
  69              		.thumb_func
  70              		.type	delay, %function
  71              	delay:
  72              	.LFB33:
  73              		.file 1 ".\\src\\main.c"
   1:.\src/main.c  **** /**
   2:.\src/main.c  ****   ******************************************************************************
   3:.\src/main.c  ****   * @file    IO_Toggle/main.c 
   4:.\src/main.c  ****   * @author  MCD Application Team
   5:.\src/main.c  ****   * @version V1.0.0
   6:.\src/main.c  ****   * @date    23-March-2012
   7:.\src/main.c  ****   * @brief   Main program body
   8:.\src/main.c  ****   ******************************************************************************
   9:.\src/main.c  ****   * @attention
  10:.\src/main.c  ****   *
  11:.\src/main.c  ****   * <h2><center>&copy; COPYRIGHT 2012 STMicroelectronics</center></h2>
  12:.\src/main.c  ****   *
  13:.\src/main.c  ****   * Licensed under MCD-ST Liberty SW License Agreement V2, (the "License");
  14:.\src/main.c  ****   * You may not use this file except in compliance with the License.
  15:.\src/main.c  ****   * You may obtain a copy of the License at:
  16:.\src/main.c  ****   *
  17:.\src/main.c  ****   *        http://www.st.com/software_license_agreement_liberty_v2
  18:.\src/main.c  ****   *
  19:.\src/main.c  ****   * Unless required by applicable law or agreed to in writing, software 
  20:.\src/main.c  ****   * distributed under the License is distributed on an "AS IS" BASIS, 
  21:.\src/main.c  ****   * WITHOUT WARRANTIES OR CONDITIONS OF ANY KIND, either express or implied.
  22:.\src/main.c  ****   * See the License for the specific language governing permissions and
  23:.\src/main.c  ****   * limitations under the License.
  24:.\src/main.c  ****   *
  25:.\src/main.c  ****   ******************************************************************************
  26:.\src/main.c  ****   */
  27:.\src/main.c  **** 
  28:.\src/main.c  **** /* Includes ------------------------------------------------------------------*/
  29:.\src/main.c  **** #include "stm32f0xx.h"
  30:.\src/main.c  **** 
  31:.\src/main.c  **** /** @addtogroup STM32F0_Discovery_Peripheral_Examples
  32:.\src/main.c  ****   * @{
  33:.\src/main.c  ****   */
  34:.\src/main.c  **** 
  35:.\src/main.c  **** /** @addtogroup IO_Toggle
  36:.\src/main.c  ****   * @{
  37:.\src/main.c  ****   */
  38:.\src/main.c  **** 
  39:.\src/main.c  **** /* Private typedef -----------------------------------------------------------*/
  40:.\src/main.c  **** /* Private define ------------------------------------------------------------*/
  41:.\src/main.c  **** #define BSRR_VAL        0x0300
ARM GAS  C:\Users\Johann\AppData\Local\Temp\ccHrT10d.s 			page 3


  42:.\src/main.c  **** 
  43:.\src/main.c  **** /* Private macro -------------------------------------------------------------*/
  44:.\src/main.c  **** /* Private variables ---------------------------------------------------------*/
  45:.\src/main.c  **** GPIO_InitTypeDef        GPIO_InitStructure;
  46:.\src/main.c  **** 
  47:.\src/main.c  **** /* Private function prototypes -----------------------------------------------*/
  48:.\src/main.c  **** /* Private functions ---------------------------------------------------------*/
  49:.\src/main.c  **** void delay (int a);
  50:.\src/main.c  **** /**
  51:.\src/main.c  ****   * @brief  Main program.
  52:.\src/main.c  ****   * @param  None
  53:.\src/main.c  ****   * @retval None
  54:.\src/main.c  ****   */
  55:.\src/main.c  **** int main(void)
  56:.\src/main.c  **** {
  57:.\src/main.c  ****   /*!< At this stage the microcontroller clock setting is already configured, 
  58:.\src/main.c  ****        this is done through SystemInit() function which is called from startup
  59:.\src/main.c  ****        file (startup_stm32f0xx.s) before to branch to application main.
  60:.\src/main.c  ****        To reconfigure the default setting of SystemInit() function, refer to
  61:.\src/main.c  ****        system_stm32f0xx.c file
  62:.\src/main.c  ****      */
  63:.\src/main.c  **** 
  64:.\src/main.c  ****   /* GPIOC Periph clock enable */
  65:.\src/main.c  ****   RCC_AHBPeriphClockCmd(RCC_AHBPeriph_GPIOC, ENABLE);
  66:.\src/main.c  **** 
  67:.\src/main.c  ****   /* Configure PC8 and PC9 in output pushpull mode */
  68:.\src/main.c  ****   GPIO_InitStructure.GPIO_Pin = GPIO_Pin_8 | GPIO_Pin_9;
  69:.\src/main.c  ****   GPIO_InitStructure.GPIO_Mode = GPIO_Mode_OUT;
  70:.\src/main.c  ****   GPIO_InitStructure.GPIO_OType = GPIO_OType_PP;
  71:.\src/main.c  ****   GPIO_InitStructure.GPIO_Speed = GPIO_Speed_50MHz;
  72:.\src/main.c  ****   GPIO_InitStructure.GPIO_PuPd = GPIO_PuPd_NOPULL;
  73:.\src/main.c  ****   GPIO_Init(GPIOC, &GPIO_InitStructure);
  74:.\src/main.c  **** 
  75:.\src/main.c  ****   /* To achieve GPIO toggling maximum frequency, the following  sequence is mandatory. 
  76:.\src/main.c  ****      You can monitor PC8 and PC9 on the scope to measure the output signal. 
  77:.\src/main.c  ****      If you need to fine tune this frequency, you can add more GPIO set/reset 
  78:.\src/main.c  ****      cycles to minimize more the infinite loop timing.
  79:.\src/main.c  ****      This code needs to be compiled with high speed optimization option.  */
  80:.\src/main.c  ****   while (1)
  81:.\src/main.c  ****   {
  82:.\src/main.c  ****     /* Set PC8 and PC9 */
  83:.\src/main.c  ****     GPIOC->BSRR = BSRR_VAL;
  84:.\src/main.c  **** 	delay(100000);
  85:.\src/main.c  **** 	/* Reset PC8 and PC9 */
  86:.\src/main.c  ****     GPIOC->BRR = BSRR_VAL;
  87:.\src/main.c  **** 	delay(100000);
  88:.\src/main.c  ****    
  89:.\src/main.c  **** 
  90:.\src/main.c  ****     
  91:.\src/main.c  ****   }
  92:.\src/main.c  **** }
  93:.\src/main.c  **** 
  94:.\src/main.c  **** void delay (int a)
  95:.\src/main.c  **** {
  74              		.loc 1 95 0
  75              		.cfi_startproc
  76              	.LVL0:
ARM GAS  C:\Users\Johann\AppData\Local\Temp\ccHrT10d.s 			page 4


  77 0000 07B5     		push	{r0, r1, r2, lr}	@
  78              	.LCFI0:
  79              		.cfi_def_cfa_offset 16
  80              		.cfi_offset 0, -16
  81              		.cfi_offset 1, -12
  82              		.cfi_offset 2, -8
  83              		.cfi_offset 14, -4
  96:.\src/main.c  **** 	volatile int i,j;
  97:.\src/main.c  **** 	
  98:.\src/main.c  **** 	for (i=0 ; i < a ; i++)
  84              		.loc 1 98 0
  85 0002 0023     		mov	r3, #0	@ tmp140,
  86 0004 04E0     		b	.L4	@
  87              	.LVL1:
  88              	.L3:
  99:.\src/main.c  **** 	{ 
 100:.\src/main.c  **** 		j++;
  89              		.loc 1 100 0 discriminator 2
  90 0006 019B     		ldr	r3, [sp, #4]	@ j.0, j
  91 0008 0133     		add	r3, r3, #1	@ j.1,
  92              	.LVL2:
  93 000a 0193     		str	r3, [sp, #4]	@ j.1, j
  94              	.LVL3:
  98:.\src/main.c  **** 	for (i=0 ; i < a ; i++)
  95              		.loc 1 98 0 discriminator 2
  96 000c 009B     		ldr	r3, [sp]	@ i.2, i
  97              	.LVL4:
  98 000e 0133     		add	r3, r3, #1	@ i.3,
  99              	.LVL5:
 100              	.L4:
 101 0010 0093     		str	r3, [sp]	@ i.3, i
 102 0012 009B     		ldr	r3, [sp]	@ i.4, i
 103              	.LVL6:
 104 0014 8342     		cmp	r3, r0	@ i.4, a
 105 0016 F6DB     		blt	.L3	@,
 101:.\src/main.c  **** 	}
 102:.\src/main.c  **** 	
 103:.\src/main.c  **** 	return;
 104:.\src/main.c  **** }
 106              		.loc 1 104 0
 107              		@ sp needed for prologue	@
 108 0018 07BD     		pop	{r0, r1, r2, pc}
 109              		.cfi_endproc
 110              	.LFE33:
 111              		.size	delay, .-delay
 112              		.section	.text.startup,"ax",%progbits
 113              		.align	1
 114              		.global	main
 115              		.code	16
 116              		.thumb_func
 117              		.type	main, %function
 118              	main:
 119              	.LFB32:
  56:.\src/main.c  **** {
 120              		.loc 1 56 0
 121              		.cfi_startproc
  65:.\src/main.c  ****   RCC_AHBPeriphClockCmd(RCC_AHBPeriph_GPIOC, ENABLE);
ARM GAS  C:\Users\Johann\AppData\Local\Temp\ccHrT10d.s 			page 5


 122              		.loc 1 65 0
 123 0000 8020     		mov	r0, #128	@ tmp161,
  56:.\src/main.c  **** {
 124              		.loc 1 56 0
 125 0002 38B5     		push	{r3, r4, r5, lr}	@
 126              	.LCFI1:
 127              		.cfi_def_cfa_offset 16
 128              		.cfi_offset 3, -16
 129              		.cfi_offset 4, -12
 130              		.cfi_offset 5, -8
 131              		.cfi_offset 14, -4
  65:.\src/main.c  ****   RCC_AHBPeriphClockCmd(RCC_AHBPeriph_GPIOC, ENABLE);
 132              		.loc 1 65 0
 133 0004 0003     		lsl	r0, r0, #12	@, tmp161,
 134 0006 0121     		mov	r1, #1	@,
 135 0008 FFF7FEFF 		bl	RCC_AHBPeriphClockCmd	@
 136              	.LVL7:
  68:.\src/main.c  ****   GPIO_InitStructure.GPIO_Pin = GPIO_Pin_8 | GPIO_Pin_9;
 137              		.loc 1 68 0
 138 000c 0C49     		ldr	r1, .L7	@ tmp136,
 139 000e C023     		mov	r3, #192	@ tmp162,
 140 0010 9B00     		lsl	r3, r3, #2	@ tmp137, tmp162,
 141 0012 0B60     		str	r3, [r1]	@ tmp137, GPIO_InitStructure.GPIO_Pin
  69:.\src/main.c  ****   GPIO_InitStructure.GPIO_Mode = GPIO_Mode_OUT;
 142              		.loc 1 69 0
 143 0014 0123     		mov	r3, #1	@ tmp139,
 144 0016 0B71     		strb	r3, [r1, #4]	@ tmp139, GPIO_InitStructure.GPIO_Mode
  71:.\src/main.c  ****   GPIO_InitStructure.GPIO_Speed = GPIO_Speed_50MHz;
 145              		.loc 1 71 0
 146 0018 0322     		mov	r2, #3	@ tmp145,
  70:.\src/main.c  ****   GPIO_InitStructure.GPIO_OType = GPIO_OType_PP;
 147              		.loc 1 70 0
 148 001a 0023     		mov	r3, #0	@ tmp142,
  73:.\src/main.c  ****   GPIO_Init(GPIOC, &GPIO_InitStructure);
 149              		.loc 1 73 0
 150 001c 0948     		ldr	r0, .L7+4	@,
  70:.\src/main.c  ****   GPIO_InitStructure.GPIO_OType = GPIO_OType_PP;
 151              		.loc 1 70 0
 152 001e 8B71     		strb	r3, [r1, #6]	@ tmp142, GPIO_InitStructure.GPIO_OType
  71:.\src/main.c  ****   GPIO_InitStructure.GPIO_Speed = GPIO_Speed_50MHz;
 153              		.loc 1 71 0
 154 0020 4A71     		strb	r2, [r1, #5]	@ tmp145, GPIO_InitStructure.GPIO_Speed
  72:.\src/main.c  ****   GPIO_InitStructure.GPIO_PuPd = GPIO_PuPd_NOPULL;
 155              		.loc 1 72 0
 156 0022 CB71     		strb	r3, [r1, #7]	@ tmp142, GPIO_InitStructure.GPIO_PuPd
  73:.\src/main.c  ****   GPIO_Init(GPIOC, &GPIO_InitStructure);
 157              		.loc 1 73 0
 158 0024 FFF7FEFF 		bl	GPIO_Init	@
 159              	.LVL8:
 160              	.L6:
  83:.\src/main.c  ****     GPIOC->BSRR = BSRR_VAL;
 161              		.loc 1 83 0 discriminator 1
 162 0028 064C     		ldr	r4, .L7+4	@ tmp152,
 163 002a C025     		mov	r5, #192	@ tmp160,
 164 002c AD00     		lsl	r5, r5, #2	@ tmp153, tmp160,
 165 002e A561     		str	r5, [r4, #24]	@ tmp153, MEM[(struct GPIO_TypeDef *)1207961600B].BSRR
  84:.\src/main.c  **** 	delay(100000);
ARM GAS  C:\Users\Johann\AppData\Local\Temp\ccHrT10d.s 			page 6


 166              		.loc 1 84 0 discriminator 1
 167 0030 0548     		ldr	r0, .L7+8	@,
 168 0032 FFF7FEFF 		bl	delay	@
 169              	.LVL9:
  86:.\src/main.c  ****     GPIOC->BRR = BSRR_VAL;
 170              		.loc 1 86 0 discriminator 1
 171 0036 2585     		strh	r5, [r4, #40]	@ tmp153, MEM[(struct GPIO_TypeDef *)1207961600B].BRR
  87:.\src/main.c  **** 	delay(100000);
 172              		.loc 1 87 0 discriminator 1
 173 0038 0348     		ldr	r0, .L7+8	@,
 174 003a FFF7FEFF 		bl	delay	@
 175              	.LVL10:
 176 003e F3E7     		b	.L6	@
 177              	.L8:
 178              		.align	2
 179              	.L7:
 180 0040 00000000 		.word	GPIO_InitStructure
 181 0044 00080048 		.word	1207961600
 182 0048 A0860100 		.word	100000
 183              		.cfi_endproc
 184              	.LFE32:
 185              		.size	main, .-main
 186              		.comm	GPIO_InitStructure,8,4
 187              		.text
 188              	.Letext0:
 189              		.file 2 "c:/yagarto-20121222/lib/gcc/../../arm-none-eabi/sys-include/stdint.h"
 190              		.file 3 "..\\STM32F0-Discovery_FW_V1.0.0\\Libraries\\CMSIS\\ST\\STM32F0xx\\Include/stm32f0xx.h"
 191              		.file 4 "..\\STM32F0-Discovery_FW_V1.0.0\\Libraries\\STM32F0xx_StdPeriph_Driver\\inc/stm32f0xx_gpi
 192              		.file 5 "..\\STM32F0-Discovery_FW_V1.0.0\\Libraries\\STM32F0xx_StdPeriph_Driver\\inc/stm32f0xx_rcc