ARM GAS  C:\Users\Johann\AppData\Local\Temp\ccHrT10d.s 			page 1


   1              		.cpu cortex-m0
   2              		.fpu softvfp
   3              		.eabi_attribute 20, 1	@ Tag_ABI_FP_denormal
   4              		.eabi_attribute 21, 1	@ Tag_ABI_FP_exceptions
   5              		.eabi_attribute 23, 3	@ Tag_ABI_FP_number_model
   6              		.eabi_attribute 24, 1	@ Tag_ABI_align8_needed
   7              		.eabi_attribute 25, 1	@ Tag_ABI_align8_preserved
   8              		.eabi_attribute 26, 1	@ Tag_ABI_enum_size
   9              		.eabi_attribute 30, 4	@ Tag_ABI_optimization_goals
  10              		.eabi_attribute 34, 0	@ Tag_CPU_unaligned_access
  11              		.eabi_attribute 18, 4	@ Tag_ABI_PCS_wchar_t
  12              		.file	"main.c"
  13              	@ GNU C (GCC) version 4.7.2 (arm-none-eabi)
  14              	@	compiled by GNU C version 3.4.5 (mingw-vista special r3), GMP version 5.0.4, MPFR version 2.4.2, 
  15              	@ GGC heuristics: --param ggc-min-expand=100 --param ggc-min-heapsize=131072
  16              	@ options passed:  -I .
  17              	@ -I ..\STM32F0-Discovery_FW_V1.0.0\Libraries\CMSIS\ST\STM32F0xx\Include
  18              	@ -I ..\STM32F0-Discovery_FW_V1.0.0\Libraries\CMSIS\Include
  19              	@ -I ..\STM32F0-Discovery_FW_V1.0.0\Libraries\STM32F0xx_StdPeriph_Driver\inc
  20              	@ -I ..\STM32F0-Discovery_FW_V1.0.0\Utilities\STM32F0-Discovery -I .\inc
  21              	@ -imultilib thumb/v6m
  22              	@ -iprefix c:\yagarto-20121222\bin\../lib/gcc/arm-none-eabi/4.7.2/
  23              	@ -MD .\src\main.d -MF .dep\main.o.d -MP -MQ .\src\main.o
  24              	@ -D__USES_INITFINI__ -D STM32F0XX -D USE_STDPERIPH_DRIVER
  25              	@ -D RUN_FROM_FLASH=1 .\src\main.c -mcpu=cortex-m0 -mthumb
  26              	@ -auxbase-strip .\src\main.o -gdwarf-2 -Os -Wall -Wstrict-prototypes
  27              	@ -fomit-frame-pointer -fverbose-asm
  28              	@ options enabled:  -fauto-inc-dec -fbranch-count-reg -fcaller-saves
  29              	@ -fcombine-stack-adjustments -fcommon -fcompare-elim -fcprop-registers
  30              	@ -fcrossjumping -fcse-follow-jumps -fdebug-types-section -fdefer-pop
  31              	@ -fdelete-null-pointer-checks -fdevirtualize -fdwarf2-cfi-asm
  32              	@ -fearly-inlining -feliminate-unused-debug-types -fexpensive-optimizations
  33              	@ -fforward-propagate -ffunction-cse -fgcse -fgcse-lm -fgnu-runtime
  34              	@ -fguess-branch-probability -fident -fif-conversion -fif-conversion2
  35              	@ -findirect-inlining -finline -finline-atomics -finline-functions
  36              	@ -finline-functions-called-once -finline-small-functions -fipa-cp
  37              	@ -fipa-profile -fipa-pure-const -fipa-reference -fipa-sra
  38              	@ -fira-share-save-slots -fira-share-spill-slots -fivopts
  39              	@ -fkeep-static-consts -fleading-underscore -fmath-errno -fmerge-constants
  40              	@ -fmerge-debug-strings -fmove-loop-invariants -fomit-frame-pointer
  41              	@ -foptimize-register-move -foptimize-sibling-calls -fpartial-inlining
  42              	@ -fpeephole -fpeephole2 -fprefetch-loop-arrays -freg-struct-return
  43              	@ -fregmove -freorder-blocks -freorder-functions -frerun-cse-after-loop
  44              	@ -fsched-critical-path-heuristic -fsched-dep-count-heuristic
  45              	@ -fsched-group-heuristic -fsched-interblock -fsched-last-insn-heuristic
  46              	@ -fsched-rank-heuristic -fsched-spec -fsched-spec-insn-heuristic
  47              	@ -fsched-stalled-insns-dep -fschedule-insns2 -fsection-anchors
  48              	@ -fshow-column -fshrink-wrap -fsigned-zeros -fsplit-ivs-in-unroller
  49              	@ -fsplit-wide-types -fstrict-aliasing -fstrict-overflow
  50              	@ -fstrict-volatile-bitfields -fthread-jumps -ftoplevel-reorder
  51              	@ -ftrapping-math -ftree-bit-ccp -ftree-builtin-call-dce -ftree-ccp
  52              	@ -ftree-ch -ftree-copy-prop -ftree-copyrename -ftree-cselim -ftree-dce
  53              	@ -ftree-dominator-opts -ftree-dse -ftree-forwprop -ftree-fre
  54              	@ -ftree-loop-if-convert -ftree-loop-im -ftree-loop-ivcanon
  55              	@ -ftree-loop-optimize -ftree-parallelize-loops= -ftree-phiprop -ftree-pre
  56              	@ -ftree-pta -ftree-reassoc -ftree-scev-cprop -ftree-sink
  57              	@ -ftree-slp-vectorize -ftree-sra -ftree-switch-conversion
ARM GAS  C:\Users\Johann\AppData\Local\Temp\ccHrT10d.s 			page 2


  58              	@ -ftree-tail-merge -ftree-ter -ftree-vect-loop-version -ftree-vrp
  59              	@ -funit-at-a-time -fvar-tracking -fvar-tracking-assignments -fverbose-asm
  60              	@ -fzero-initialized-in-bss -mlittle-endian -msched-prolog -mthumb
  61              	@ -mvectorize-with-neon-quad
  62              	
  63              		.text
  64              	.Ltext0:
  65              		.cfi_sections	.debug_frame
  66              		.align	1
  67              		.global	delay
  68              		.code	16
  69              		.thumb_func
  70              		.type	delay, %function
  71              	delay:
  72              	.LFB33:
  73              		.file 1 ".\\src\\main.c"
   1:.\src/main.c  **** /**
   2:.\src/main.c  ****   ******************************************************************************
   3:.\src/main.c  ****   * @file    IO_Toggle/main.c 
   4:.\src/main.c  ****   * @author  MCD Application Team
   5:.\src/main.c  ****   * @version V1.0.0
   6:.\src/main.c  ****   * @date    23-March-2012
   7:.\src/main.c  ****   * @brief   Main program body
   8:.\src/main.c  ****   ******************************************************************************
   9:.\src/main.c  ****   * @attention
  10:.\src/main.c  ****   *
  11:.\src/main.c  ****   * <h2><center>&copy; COPYRIGHT 2012 STMicroelectronics</center></h2>
  12:.\src/main.c  ****   *
  13:.\src/main.c  ****   * Licensed under MCD-ST Liberty SW License Agreement V2, (the "License");
  14:.\src/main.c  ****   * You may not use this file except in compliance with the License.
  15:.\src/main.c  ****   * You may obtain a copy of the License at:
  16:.\src/main.c  ****   *
  17:.\src/main.c  ****   *        http://www.st.com/software_license_agreement_liberty_v2
  18:.\src/main.c  ****   *
  19:.\src/main.c  ****   * Unless required by applicable law or agreed to in writing, software 
  20:.\src/main.c  ****   * distributed under the License is distributed on an "AS IS" BASIS, 
  21:.\src/main.c  ****   * WITHOUT WARRANTIES OR CONDITIONS OF ANY KIND, either express or implied.
  22:.\src/main.c  ****   * See the License for the specific language governing permissions and
  23:.\src/main.c  ****   * limitations under the License.
  24:.\src/main.c  ****   *
  25:.\src/main.c  ****   ******************************************************************************
  26:.\src/main.c  ****   */
  27:.\src/main.c  **** 
  28:.\src/main.c  **** /* Includes ------------------------------------------------------------------*/
  29:.\src/main.c  **** #include "stm32f0xx.h"
  30:.\src/main.c  **** 
  31:.\src/main.c  **** /** @addtogroup STM32F0_Discovery_Peripheral_Examples
  32:.\src/main.c  ****   * @{
  33:.\src/main.c  ****   */
  34:.\src/main.c  **** 
  35:.\src/main.c  **** /** @addtogroup IO_Toggle
  36:.\src/main.c  ****   * @{
  37:.\src/main.c  ****   */
  38:.\src/main.c  **** 
  39:.\src/main.c  **** /* Private typedef -----------------------------------------------------------*/
  40:.\src/main.c  **** /* Private define ------------------------------------------------------------*/
  41:.\src/main.c  **** #define BSRR_VAL        0x0300
ARM GAS  C:\Users\Johann\AppData\Local\Temp\ccHrT10d.s 			page 3


  42:.\src/main.c  **** 
  43:.\src/main.c  **** /* Private macro -------------------------------------------------------------*/
  44:.\src/main.c  **** /* Private variables ---------------------------------------------------------*/
  45:.\src/main.c  **** GPIO_InitTypeDef        GPIO_InitStructure;
  46:.\src/main.c  **** 
  47:.\src/main.c  **** /* Private function prototypes -----------------------------------------------*/
  48:.\src/main.c  **** /* Private functions ---------------------------------------------------------*/
  49:.\src/main.c  **** void delay (int a);
  50:.\src/main.c  **** /**
  51:.\src/main.c  ****   * @brief  Main program.
  52:.\src/main.c  ****   * @param  None
  53:.\src/main.c  ****   * @retval None
  54:.\src/main.c  ****   */
  55:.\src/main.c  **** int main(void)
  56:.\src/main.c  **** {
  57:.\src/main.c  ****   /*!< At this stage the microcontroller clock setting is already configured, 
  58:.\src/main.c  ****        this is done through SystemInit() function which is called from startup
  59:.\src/main.c  ****        file (startup_stm32f0xx.s) before to branch to application main.
  60:.\src/main.c  ****        To reconfigure the default setting of SystemInit() function, refer to
  61:.\src/main.c  ****        system_stm32f0xx.c file
  62:.\src/main.c  ****      */
  63:.\src/main.c  **** 
  64:.\src/main.c  ****   /* GPIOC Periph clock enable */
  65:.\src/main.c  ****   RCC_AHBPeriphClockCmd(RCC_AHBPeriph_GPIOC, ENABLE);
  66:.\src/main.c  **** 
  67:.\src/main.c  ****   /* Configure PC8 and PC9 in output pushpull mode */
  68:.\src/main.c  ****   GPIO_InitStructure.GPIO_Pin = GPIO_Pin_8 | GPIO_Pin_9;
  69:.\src/main.c  ****   GPIO_InitStructure.GPIO_Mode = GPIO_Mode_OUT;
  70:.\src/main.c  ****   GPIO_InitStructure.GPIO_OType = GPIO_OType_PP;
  71:.\src/main.c  ****   GPIO_InitStructure.GPIO_Speed = GPIO_Speed_50MHz;
  72:.\src/main.c  ****   GPIO_InitStructure.GPIO_PuPd = GPIO_PuPd_NOPULL;
  73:.\src/main.c  ****   GPIO_Init(GPIOC, &GPIO_InitStructure);
  74:.\src/main.c  **** 
  75:.\src/main.c  ****   /* To achieve GPIO toggling maximum frequency, the following  sequence is mandatory. 
  76:.\src/main.c  ****      You can monitor PC8 and PC9 on the scope to measure the output signal. 
  77:.\src/main.c  ****      If you need to fine tune this frequency, you can add more GPIO set/reset 
  78:.\src/main.c  ****      cycles to minimize more the infinite loop timing.
  79:.\src/main.c  ****      This code needs to be compiled with high speed optimization option.  */
  80:.\src/main.c  ****   while (1)
  81:.\src/main.c  ****   {
  82:.\src/main.c  ****     /* Set PC8 and PC9 */
  83:.\src/main.c  ****     GPIOC->BSRR = BSRR_VAL;
  84:.\src/main.c  **** 	delay(100000);
  85:.\src/main.c  **** 	/* Reset PC8 and PC9 */
  86:.\src/main.c  ****     GPIOC->BRR = BSRR_VAL;
  87:.\src/main.c  **** 	delay(100000);
  88:.\src/main.c  ****    
  89:.\src/main.c  **** 
  90:.\src/main.c  ****     
  91:.\src/main.c  ****   }
  92:.\src/main.c  **** }
  93:.\src/main.c  **** 
  94:.\src/main.c  **** void delay (int a)
  95:.\src/main.c  **** {
  74              		.loc 1 95 0
  75              		.cfi_startproc
  76              	.LVL0:
ARM GAS  C:\Users\Johann\AppData\Local\Temp\ccHrT10d.s 			page 4


  77 0000 07B5     		push	{r0, r1, r2, lr}	@
  78              	.LCFI0:
  79              		.cfi_def_cfa_offset 16
  80              		.cfi_offset 0, -16
  81              		.cfi_offset 1, -12
  82              		.cfi_offset 2, -8
  83              		.cfi_offset 14, -4
  96:.\src/main.c  **** 	volatile int i,j;
  97:.\src/main.c  **** 	
  98:.\src/main.c  **** 	for (i=0 ; i < a ; i++)
  84              		.loc 1 98 0
  85 0002 0023     		mov	r3, #0	@ tmp140,
  86 0004 04E0     		b	.L4	@
  87              	.LVL1:
  88              	.L3:
  99:.\src/main.c  **** 	{ 
 100:.\src/main.c  **** 		j++;
  89              		.loc 1 100 0 discriminator 2
  90 0006 019B     		ldr	r3, [sp, #4]	@ j.0, j
  91 0008 0133     		add	r3, r3, #1	@ j.1,
  92              	.LVL2:
  93 000a 0193     		str	r3, [sp, #4]	@ j.1, j
  94              	.LVL3:
  98:.\src/main.c  **** 	for (i=0 ; i < a ; i++)
  95              		.loc 1 98 0 discriminator 2
  96 000c 009B     		ldr	r3, [sp]	@ i.2, i
  97              	.LVL4:
  98 000e 0133     		add	r3, r3, #1	@ i.3,
  99              	.LVL5:
 100              	.L4:
 101 0010 0093     		str	r3, [sp]	@ i.3, i
 102 0012 009B     		ldr	r3, [sp]	@ i.4, i
 103              	.LVL6:
 104 0014 8342     		cmp	r3, r0	@ i.4, a
 105 0016 F6DB     		blt	.L3	@,
 101:.\src/main.c  **** 	}
 102:.\src/main.c  **** 	
 103:.\src/main.c  **** 	return;
 104:.\src/main.c  **** }
 106              		.loc 1 104 0
 107              		@ sp needed for prologue	@
 108 0018 07BD     		pop	{r0, r1, r2, pc}
 109              		.cfi_endproc
 110              	.LFE33:
 111              		.size	delay, .-delay
 112              		.section	.text.startup,"ax",%progbits
 113              		.align	1
 114              		.global	main
 115              		.code	16
 116              		.thumb_func
 117              		.type	main, %function
 118              	main:
 119              	.LFB32:
  56:.\src/main.c  **** {
 120              		.loc 1 56 0
 121              		.cfi_startproc
  65:.\src/main.c  ****   RCC_AHBPeriphClockCmd(RCC_AHBPeriph_GPIOC, ENABLE);
ARM GAS  C:\Users\Johann\AppData\Local\Temp\ccHrT10d.s 			page 5


 122              		.loc 1 65 0
 123 0000 8020     		mov	r0, #128	@ tmp161,
  56:.\src/main.c  **** {
 124              		.loc 1 56 0
 125 0002 38B5     		push	{r3, r4, r5, lr}	@
 126              	.LCFI1:
 127              		.cfi_def_cfa_offset 16
 128              		.cfi_offset 3, -16
 129              		.cfi_offset 4, -12
 130              		.cfi_offset 5, -8
 131              		.cfi_offset 14, -4
  65:.\src/main.c  ****   RCC_AHBPeriphClockCmd(RCC_AHBPeriph_GPIOC, ENABLE);
 132              		.loc 1 65 0
 133 0004 0003     		lsl	r0, r0, #12	@, tmp161,
 134 0006 0121     		mov	r1, #1	@,
 135 0008 FFF7FEFF 		bl	RCC_AHBPeriphClockCmd	@
 136              	.LVL7:
  68:.\src/main.c  ****   GPIO_InitStructure.GPIO_Pin = GPIO_Pin_8 | GPIO_Pin_9;
 137              		.loc 1 68 0
 138 000c 0C49     		ldr	r1, .L7	@ tmp136,
 139 000e C023     		mov	r3, #192	@ tmp162,
 140 0010 9B00     		lsl	r3, r3, #2	@ tmp137, tmp162,
 141 0012 0B60     		str	r3, [r1]	@ tmp137, GPIO_InitStructure.GPIO_Pin
  69:.\src/main.c  ****   GPIO_InitStructure.GPIO_Mode = GPIO_Mode_OUT;
 142              		.loc 1 69 0
 143 0014 0123     		mov	r3, #1	@ tmp139,
 144 0016 0B71     		strb	r3, [r1, #4]	@ tmp139, GPIO_InitStructure.GPIO_Mode
  71:.\src/main.c  ****   GPIO_InitStructure.GPIO_Speed = GPIO_Speed_50MHz;
 145              		.loc 1 71 0
 146 0018 0322     		mov	r2, #3	@ tmp145,
  70:.\src/main.c  ****   GPIO_InitStructure.GPIO_OType = GPIO_OType_PP;
 147              		.loc 1 70 0
 148 001a 0023     		mov	r3, #0	@ tmp142,
  73:.\src/main.c  ****   GPIO_Init(GPIOC, &GPIO_InitStructure);
 149              		.loc 1 73 0
 150 001c 0948     		ldr	r0, .L7+4	@,
  70:.\src/main.c  ****   GPIO_InitStructure.GPIO_OType = GPIO_OType_PP;
 151              		.loc 1 70 0
 152 001e 8B71     		strb	r3, [r1, #6]	@ tmp142, GPIO_InitStructure.GPIO_OType
  71:.\src/main.c  ****   GPIO_InitStructure.GPIO_Speed = GPIO_Speed_50MHz;
 153              		.loc 1 71 0
 154 0020 4A71     		strb	r2, [r1, #5]	@ tmp145, GPIO_InitStructure.GPIO_Speed
  72:.\src/main.c  ****   GPIO_InitStructure.GPIO_PuPd = GPIO_PuPd_NOPULL;
 155              		.loc 1 72 0
 156 0022 CB71     		strb	r3, [r1, #7]	@ tmp142, GPIO_InitStructure.GPIO_PuPd
  73:.\src/main.c  ****   GPIO_Init(GPIOC, &GPIO_InitStructure);
 157              		.loc 1 73 0
 158 0024 FFF7FEFF 		bl	GPIO_Init	@
 159              	.LVL8:
 160              	.L6:
  83:.\src/main.c  ****     GPIOC->BSRR = BSRR_VAL;
 161              		.loc 1 83 0 discriminator 1
 162 0028 064C     		ldr	r4, .L7+4	@ tmp152,
 163 002a C025     		mov	r5, #192	@ tmp160,
 164 002c AD00     		lsl	r5, r5, #2	@ tmp153, tmp160,
 165 002e A561     		str	r5, [r4, #24]	@ tmp153, MEM[(struct GPIO_TypeDef *)1207961600B].BSRR
  84:.\src/main.c  **** 	delay(100000);
ARM GAS  C:\Users\Johann\AppData\Local\Temp\ccHrT10d.s 			page 6


 166              		.loc 1 84 0 discriminator 1
 167 0030 0548     		ldr	r0, .L7+8	@,
 168 0032 FFF7FEFF 		bl	delay	@
 169              	.LVL9:
  86:.\src/main.c  ****     GPIOC->BRR = BSRR_VAL;
 170              		.loc 1 86 0 discriminator 1
 171 0036 2585     		strh	r5, [r4, #40]	@ tmp153, MEM[(struct GPIO_TypeDef *)1207961600B].BRR
  87:.\src/main.c  **** 	delay(100000);
 172              		.loc 1 87 0 discriminator 1
 173 0038 0348     		ldr	r0, .L7+8	@,
 174 003a FFF7FEFF 		bl	delay	@
 175              	.LVL10:
 176 003e F3E7     		b	.L6	@
 177              	.L8:
 178              		.align	2
 179              	.L7:
 180 0040 00000000 		.word	GPIO_InitStructure
 181 0044 00080048 		.word	1207961600
 182 0048 A0860100 		.word	100000
 183              		.cfi_endproc
 184              	.LFE32:
 185              		.size	main, .-main
 186              		.comm	GPIO_InitStructure,8,4
 187              		.text
 188              	.Letext0:
 189              		.file 2 "c:/yagarto-20121222/lib/gcc/../../arm-none-eabi/sys-include/stdint.h"
 190              		.file 3 "..\\STM32F0-Discovery_FW_V1.0.0\\Libraries\\CMSIS\\ST\\STM32F0xx\\Include/stm32f0xx.h"
 191              		.file 4 "..\\STM32F0-Discovery_FW_V1.0.0\\Libraries\\STM32F0xx_StdPeriph_Driver\\inc/stm32f0xx_gpi
 192              		.file 5 "..\\STM32F0-Discovery_FW_V1.0.0\\Libraries\\STM32F0xx_StdPeriph_Driver\\inc/stm32f0xx_rcc
 193              		.section	.debug_info,"",%progbits
 194              	.Ldebug_info0:
 195 0000 BC030000 		.4byte	0x3bc
 196 0004 0200     		.2byte	0x2
 197 0006 00000000 		.4byte	.Ldebug_abbrev0
 198 000a 04       		.byte	0x4
 199 000b 01       		.uleb128 0x1
 200 000c E9010000 		.4byte	.LASF50
 201 0010 01       		.byte	0x1
 202 0011 40010000 		.4byte	.LASF51
 203 0015 00000000 		.4byte	.LASF52
 204 0019 00000000 		.4byte	.Ldebug_ranges0+0
 205 001d 00000000 		.4byte	0
 206 0021 00000000 		.4byte	0
 207 0025 00000000 		.4byte	.Ldebug_line0
 208 0029 02       		.uleb128 0x2
 209 002a 01       		.byte	0x1
 210 002b 06       		.byte	0x6
 211 002c C7000000 		.4byte	.LASF0
 212 0030 02       		.uleb128 0x2
 213 0031 01       		.byte	0x1
 214 0032 08       		.byte	0x8
 215 0033 1D020000 		.4byte	.LASF1
 216 0037 02       		.uleb128 0x2
 217 0038 02       		.byte	0x2
 218 0039 05       		.byte	0x5
 219 003a 31020000 		.4byte	.LASF2
 220 003e 03       		.uleb128 0x3
ARM GAS  C:\Users\Johann\AppData\Local\Temp\ccHrT10d.s 			page 7


 221 003f F5000000 		.4byte	.LASF5
 222 0043 02       		.byte	0x2
 223 0044 36       		.byte	0x36
 224 0045 49000000 		.4byte	0x49
 225 0049 02       		.uleb128 0x2
 226 004a 02       		.byte	0x2
 227 004b 07       		.byte	0x7
 228 004c 6C010000 		.4byte	.LASF3
 229 0050 02       		.uleb128 0x2
 230 0051 04       		.byte	0x4
 231 0052 05       		.byte	0x5
 232 0053 E5000000 		.4byte	.LASF4
 233 0057 03       		.uleb128 0x3
 234 0058 3B020000 		.4byte	.LASF6
 235 005c 02       		.byte	0x2
 236 005d 50       		.byte	0x50
 237 005e 62000000 		.4byte	0x62
 238 0062 02       		.uleb128 0x2
 239 0063 04       		.byte	0x4
 240 0064 07       		.byte	0x7
 241 0065 4D010000 		.4byte	.LASF7
 242 0069 02       		.uleb128 0x2
 243 006a 08       		.byte	0x8
 244 006b 05       		.byte	0x5
 245 006c B9000000 		.4byte	.LASF8
 246 0070 02       		.uleb128 0x2
 247 0071 08       		.byte	0x8
 248 0072 07       		.byte	0x7
 249 0073 73000000 		.4byte	.LASF9
 250 0077 04       		.uleb128 0x4
 251 0078 04       		.byte	0x4
 252 0079 05       		.byte	0x5
 253 007a 696E7400 		.ascii	"int\000"
 254 007e 02       		.uleb128 0x2
 255 007f 04       		.byte	0x4
 256 0080 07       		.byte	0x7
 257 0081 33010000 		.4byte	.LASF10
 258 0085 02       		.uleb128 0x2
 259 0086 04       		.byte	0x4
 260 0087 07       		.byte	0x7
 261 0088 A1010000 		.4byte	.LASF11
 262 008c 05       		.uleb128 0x5
 263 008d 57000000 		.4byte	0x57
 264 0091 06       		.uleb128 0x6
 265 0092 57000000 		.4byte	0x57
 266 0096 A1000000 		.4byte	0xa1
 267 009a 07       		.uleb128 0x7
 268 009b 85000000 		.4byte	0x85
 269 009f 01       		.byte	0x1
 270 00a0 00       		.byte	0
 271 00a1 08       		.uleb128 0x8
 272 00a2 01       		.byte	0x1
 273 00a3 03       		.byte	0x3
 274 00a4 E1       		.byte	0xe1
 275 00a5 B6000000 		.4byte	0xb6
 276 00a9 09       		.uleb128 0x9
 277 00aa 65000000 		.4byte	.LASF12
ARM GAS  C:\Users\Johann\AppData\Local\Temp\ccHrT10d.s 			page 8


 278 00ae 00       		.sleb128 0
 279 00af 09       		.uleb128 0x9
 280 00b0 EE000000 		.4byte	.LASF13
 281 00b4 01       		.sleb128 1
 282 00b5 00       		.byte	0
 283 00b6 03       		.uleb128 0x3
 284 00b7 D9010000 		.4byte	.LASF14
 285 00bb 03       		.byte	0x3
 286 00bc E1       		.byte	0xe1
 287 00bd A1000000 		.4byte	0xa1
 288 00c1 05       		.uleb128 0x5
 289 00c2 3E000000 		.4byte	0x3e
 290 00c6 0A       		.uleb128 0xa
 291 00c7 2C       		.byte	0x2c
 292 00c8 03       		.byte	0x3
 293 00c9 8C01     		.2byte	0x18c
 294 00cb A2010000 		.4byte	0x1a2
 295 00cf 0B       		.uleb128 0xb
 296 00d0 6D000000 		.4byte	.LASF15
 297 00d4 03       		.byte	0x3
 298 00d5 8E01     		.2byte	0x18e
 299 00d7 8C000000 		.4byte	0x8c
 300 00db 02       		.byte	0x2
 301 00dc 23       		.byte	0x23
 302 00dd 00       		.uleb128 0
 303 00de 0B       		.uleb128 0xb
 304 00df 50000000 		.4byte	.LASF16
 305 00e3 03       		.byte	0x3
 306 00e4 8F01     		.2byte	0x18f
 307 00e6 C1000000 		.4byte	0xc1
 308 00ea 02       		.byte	0x2
 309 00eb 23       		.byte	0x23
 310 00ec 04       		.uleb128 0x4
 311 00ed 0B       		.uleb128 0xb
 312 00ee F5010000 		.4byte	.LASF17
 313 00f2 03       		.byte	0x3
 314 00f3 9001     		.2byte	0x190
 315 00f5 3E000000 		.4byte	0x3e
 316 00f9 02       		.byte	0x2
 317 00fa 23       		.byte	0x23
 318 00fb 06       		.uleb128 0x6
 319 00fc 0B       		.uleb128 0xb
 320 00fd 10010000 		.4byte	.LASF18
 321 0101 03       		.byte	0x3
 322 0102 9101     		.2byte	0x191
 323 0104 8C000000 		.4byte	0x8c
 324 0108 02       		.byte	0x2
 325 0109 23       		.byte	0x23
 326 010a 08       		.uleb128 0x8
 327 010b 0B       		.uleb128 0xb
 328 010c 38000000 		.4byte	.LASF19
 329 0110 03       		.byte	0x3
 330 0111 9201     		.2byte	0x192
 331 0113 8C000000 		.4byte	0x8c
 332 0117 02       		.byte	0x2
 333 0118 23       		.byte	0x23
 334 0119 0C       		.uleb128 0xc
ARM GAS  C:\Users\Johann\AppData\Local\Temp\ccHrT10d.s 			page 9


 335 011a 0C       		.uleb128 0xc
 336 011b 49445200 		.ascii	"IDR\000"
 337 011f 03       		.byte	0x3
 338 0120 9301     		.2byte	0x193
 339 0122 C1000000 		.4byte	0xc1
 340 0126 02       		.byte	0x2
 341 0127 23       		.byte	0x23
 342 0128 10       		.uleb128 0x10
 343 0129 0B       		.uleb128 0xb
 344 012a FF010000 		.4byte	.LASF20
 345 012e 03       		.byte	0x3
 346 012f 9401     		.2byte	0x194
 347 0131 3E000000 		.4byte	0x3e
 348 0135 02       		.byte	0x2
 349 0136 23       		.byte	0x23
 350 0137 12       		.uleb128 0x12
 351 0138 0C       		.uleb128 0xc
 352 0139 4F445200 		.ascii	"ODR\000"
 353 013d 03       		.byte	0x3
 354 013e 9501     		.2byte	0x195
 355 0140 C1000000 		.4byte	0xc1
 356 0144 02       		.byte	0x2
 357 0145 23       		.byte	0x23
 358 0146 14       		.uleb128 0x14
 359 0147 0B       		.uleb128 0xb
 360 0148 09020000 		.4byte	.LASF21
 361 014c 03       		.byte	0x3
 362 014d 9601     		.2byte	0x196
 363 014f 3E000000 		.4byte	0x3e
 364 0153 02       		.byte	0x2
 365 0154 23       		.byte	0x23
 366 0155 16       		.uleb128 0x16
 367 0156 0B       		.uleb128 0xb
 368 0157 D3000000 		.4byte	.LASF22
 369 015b 03       		.byte	0x3
 370 015c 9701     		.2byte	0x197
 371 015e 8C000000 		.4byte	0x8c
 372 0162 02       		.byte	0x2
 373 0163 23       		.byte	0x23
 374 0164 18       		.uleb128 0x18
 375 0165 0B       		.uleb128 0xb
 376 0166 3E000000 		.4byte	.LASF23
 377 016a 03       		.byte	0x3
 378 016b 9801     		.2byte	0x198
 379 016d 8C000000 		.4byte	0x8c
 380 0171 02       		.byte	0x2
 381 0172 23       		.byte	0x23
 382 0173 1C       		.uleb128 0x1c
 383 0174 0C       		.uleb128 0xc
 384 0175 41465200 		.ascii	"AFR\000"
 385 0179 03       		.byte	0x3
 386 017a 9901     		.2byte	0x199
 387 017c A2010000 		.4byte	0x1a2
 388 0180 02       		.byte	0x2
 389 0181 23       		.byte	0x23
 390 0182 20       		.uleb128 0x20
 391 0183 0C       		.uleb128 0xc
ARM GAS  C:\Users\Johann\AppData\Local\Temp\ccHrT10d.s 			page 10


 392 0184 42525200 		.ascii	"BRR\000"
 393 0188 03       		.byte	0x3
 394 0189 9A01     		.2byte	0x19a
 395 018b C1000000 		.4byte	0xc1
 396 018f 02       		.byte	0x2
 397 0190 23       		.byte	0x23
 398 0191 28       		.uleb128 0x28
 399 0192 0B       		.uleb128 0xb
 400 0193 13020000 		.4byte	.LASF24
 401 0197 03       		.byte	0x3
 402 0198 9B01     		.2byte	0x19b
 403 019a 3E000000 		.4byte	0x3e
 404 019e 02       		.byte	0x2
 405 019f 23       		.byte	0x23
 406 01a0 2A       		.uleb128 0x2a
 407 01a1 00       		.byte	0
 408 01a2 05       		.uleb128 0x5
 409 01a3 91000000 		.4byte	0x91
 410 01a7 0D       		.uleb128 0xd
 411 01a8 5F010000 		.4byte	.LASF25
 412 01ac 03       		.byte	0x3
 413 01ad 9C01     		.2byte	0x19c
 414 01af C6000000 		.4byte	0xc6
 415 01b3 08       		.uleb128 0x8
 416 01b4 01       		.byte	0x1
 417 01b5 04       		.byte	0x4
 418 01b6 3E       		.byte	0x3e
 419 01b7 D4010000 		.4byte	0x1d4
 420 01bb 09       		.uleb128 0x9
 421 01bc D8000000 		.4byte	.LASF26
 422 01c0 00       		.sleb128 0
 423 01c1 09       		.uleb128 0x9
 424 01c2 D5020000 		.4byte	.LASF27
 425 01c6 01       		.sleb128 1
 426 01c7 09       		.uleb128 0x9
 427 01c8 8A000000 		.4byte	.LASF28
 428 01cc 02       		.sleb128 2
 429 01cd 09       		.uleb128 0x9
 430 01ce A2000000 		.4byte	.LASF29
 431 01d2 03       		.sleb128 3
 432 01d3 00       		.byte	0
 433 01d4 03       		.uleb128 0x3
 434 01d5 C4020000 		.4byte	.LASF30
 435 01d9 04       		.byte	0x4
 436 01da 43       		.byte	0x43
 437 01db B3010000 		.4byte	0x1b3
 438 01df 08       		.uleb128 0x8
 439 01e0 01       		.byte	0x1
 440 01e1 04       		.byte	0x4
 441 01e2 4F       		.byte	0x4f
 442 01e3 F4010000 		.4byte	0x1f4
 443 01e7 09       		.uleb128 0x9
 444 01e8 57000000 		.4byte	.LASF31
 445 01ec 00       		.sleb128 0
 446 01ed 09       		.uleb128 0x9
 447 01ee A7020000 		.4byte	.LASF32
 448 01f2 01       		.sleb128 1
ARM GAS  C:\Users\Johann\AppData\Local\Temp\ccHrT10d.s 			page 11


 449 01f3 00       		.byte	0
 450 01f4 03       		.uleb128 0x3
 451 01f5 FE000000 		.4byte	.LASF33
 452 01f9 04       		.byte	0x4
 453 01fa 52       		.byte	0x52
 454 01fb DF010000 		.4byte	0x1df
 455 01ff 08       		.uleb128 0x8
 456 0200 01       		.byte	0x1
 457 0201 04       		.byte	0x4
 458 0202 5E       		.byte	0x5e
 459 0203 1A020000 		.4byte	0x21a
 460 0207 09       		.uleb128 0x9
 461 0208 64020000 		.4byte	.LASF34
 462 020c 01       		.sleb128 1
 463 020d 09       		.uleb128 0x9
 464 020e 77020000 		.4byte	.LASF35
 465 0212 02       		.sleb128 2
 466 0213 09       		.uleb128 0x9
 467 0214 8A020000 		.4byte	.LASF36
 468 0218 03       		.sleb128 3
 469 0219 00       		.byte	0
 470 021a 03       		.uleb128 0x3
 471 021b 18010000 		.4byte	.LASF37
 472 021f 04       		.byte	0x4
 473 0220 62       		.byte	0x62
 474 0221 FF010000 		.4byte	0x1ff
 475 0225 08       		.uleb128 0x8
 476 0226 01       		.byte	0x1
 477 0227 04       		.byte	0x4
 478 0228 6E       		.byte	0x6e
 479 0229 40020000 		.4byte	0x240
 480 022d 09       		.uleb128 0x9
 481 022e 90010000 		.4byte	.LASF38
 482 0232 00       		.sleb128 0
 483 0233 09       		.uleb128 0x9
 484 0234 43000000 		.4byte	.LASF39
 485 0238 01       		.sleb128 1
 486 0239 09       		.uleb128 0x9
 487 023a B5020000 		.4byte	.LASF40
 488 023e 02       		.sleb128 2
 489 023f 00       		.byte	0
 490 0240 03       		.uleb128 0x3
 491 0241 7F010000 		.4byte	.LASF41
 492 0245 04       		.byte	0x4
 493 0246 72       		.byte	0x72
 494 0247 25020000 		.4byte	0x225
 495 024b 0E       		.uleb128 0xe
 496 024c 08       		.byte	0x8
 497 024d 04       		.byte	0x4
 498 024e 8B       		.byte	0x8b
 499 024f 9A020000 		.4byte	0x29a
 500 0253 0F       		.uleb128 0xf
 501 0254 2A010000 		.4byte	.LASF42
 502 0258 04       		.byte	0x4
 503 0259 8D       		.byte	0x8d
 504 025a 57000000 		.4byte	0x57
 505 025e 02       		.byte	0x2
ARM GAS  C:\Users\Johann\AppData\Local\Temp\ccHrT10d.s 			page 12


 506 025f 23       		.byte	0x23
 507 0260 00       		.uleb128 0
 508 0261 0F       		.uleb128 0xf
 509 0262 9D020000 		.4byte	.LASF43
 510 0266 04       		.byte	0x4
 511 0267 90       		.byte	0x90
 512 0268 D4010000 		.4byte	0x1d4
 513 026c 02       		.byte	0x2
 514 026d 23       		.byte	0x23
 515 026e 04       		.uleb128 0x4
 516 026f 0F       		.uleb128 0xf
 517 0270 97000000 		.4byte	.LASF44
 518 0274 04       		.byte	0x4
 519 0275 93       		.byte	0x93
 520 0276 1A020000 		.4byte	0x21a
 521 027a 02       		.byte	0x2
 522 027b 23       		.byte	0x23
 523 027c 05       		.uleb128 0x5
 524 027d 0F       		.uleb128 0xf
 525 027e AA010000 		.4byte	.LASF45
 526 0282 04       		.byte	0x4
 527 0283 96       		.byte	0x96
 528 0284 F4010000 		.4byte	0x1f4
 529 0288 02       		.byte	0x2
 530 0289 23       		.byte	0x23
 531 028a 06       		.uleb128 0x6
 532 028b 0F       		.uleb128 0xf
 533 028c 44020000 		.4byte	.LASF46
 534 0290 04       		.byte	0x4
 535 0291 99       		.byte	0x99
 536 0292 40020000 		.4byte	0x240
 537 0296 02       		.byte	0x2
 538 0297 23       		.byte	0x23
 539 0298 07       		.uleb128 0x7
 540 0299 00       		.byte	0
 541 029a 03       		.uleb128 0x3
 542 029b C8010000 		.4byte	.LASF47
 543 029f 04       		.byte	0x4
 544 02a0 9B       		.byte	0x9b
 545 02a1 4B020000 		.4byte	0x24b
 546 02a5 10       		.uleb128 0x10
 547 02a6 01       		.byte	0x1
 548 02a7 2B020000 		.4byte	.LASF53
 549 02ab 01       		.byte	0x1
 550 02ac 5E       		.byte	0x5e
 551 02ad 01       		.byte	0x1
 552 02ae 00000000 		.4byte	.LFB33
 553 02b2 1A000000 		.4byte	.LFE33
 554 02b6 00000000 		.4byte	.LLST0
 555 02ba 01       		.byte	0x1
 556 02bb E5020000 		.4byte	0x2e5
 557 02bf 11       		.uleb128 0x11
 558 02c0 6100     		.ascii	"a\000"
 559 02c2 01       		.byte	0x1
 560 02c3 5E       		.byte	0x5e
 561 02c4 77000000 		.4byte	0x77
 562 02c8 01       		.byte	0x1
ARM GAS  C:\Users\Johann\AppData\Local\Temp\ccHrT10d.s 			page 13


 563 02c9 50       		.byte	0x50
 564 02ca 12       		.uleb128 0x12
 565 02cb 6900     		.ascii	"i\000"
 566 02cd 01       		.byte	0x1
 567 02ce 60       		.byte	0x60
 568 02cf E5020000 		.4byte	0x2e5
 569 02d3 20000000 		.4byte	.LLST1
 570 02d7 12       		.uleb128 0x12
 571 02d8 6A00     		.ascii	"j\000"
 572 02da 01       		.byte	0x1
 573 02db 60       		.byte	0x60
 574 02dc E5020000 		.4byte	0x2e5
 575 02e0 4B000000 		.4byte	.LLST2
 576 02e4 00       		.byte	0
 577 02e5 05       		.uleb128 0x5
 578 02e6 77000000 		.4byte	0x77
 579 02ea 13       		.uleb128 0x13
 580 02eb 01       		.byte	0x1
 581 02ec E3020000 		.4byte	.LASF54
 582 02f0 01       		.byte	0x1
 583 02f1 37       		.byte	0x37
 584 02f2 01       		.byte	0x1
 585 02f3 77000000 		.4byte	0x77
 586 02f7 00000000 		.4byte	.LFB32
 587 02fb 4C000000 		.4byte	.LFE32
 588 02ff 76000000 		.4byte	.LLST3
 589 0303 01       		.byte	0x1
 590 0304 6D030000 		.4byte	0x36d
 591 0308 14       		.uleb128 0x14
 592 0309 0C000000 		.4byte	.LVL7
 593 030d 7F030000 		.4byte	0x37f
 594 0311 22030000 		.4byte	0x322
 595 0315 15       		.uleb128 0x15
 596 0316 01       		.byte	0x1
 597 0317 51       		.byte	0x51
 598 0318 01       		.byte	0x1
 599 0319 31       		.byte	0x31
 600 031a 15       		.uleb128 0x15
 601 031b 01       		.byte	0x1
 602 031c 50       		.byte	0x50
 603 031d 03       		.byte	0x3
 604 031e 40       		.byte	0x40
 605 031f 3F       		.byte	0x3f
 606 0320 24       		.byte	0x24
 607 0321 00       		.byte	0
 608 0322 14       		.uleb128 0x14
 609 0323 28000000 		.4byte	.LVL8
 610 0327 99030000 		.4byte	0x399
 611 032b 42030000 		.4byte	0x342
 612 032f 15       		.uleb128 0x15
 613 0330 01       		.byte	0x1
 614 0331 51       		.byte	0x51
 615 0332 05       		.byte	0x5
 616 0333 03       		.byte	0x3
 617 0334 00000000 		.4byte	GPIO_InitStructure
 618 0338 15       		.uleb128 0x15
 619 0339 01       		.byte	0x1
ARM GAS  C:\Users\Johann\AppData\Local\Temp\ccHrT10d.s 			page 14


 620 033a 50       		.byte	0x50
 621 033b 05       		.byte	0x5
 622 033c 0C       		.byte	0xc
 623 033d 00080048 		.4byte	0x48000800
 624 0341 00       		.byte	0
 625 0342 14       		.uleb128 0x14
 626 0343 36000000 		.4byte	.LVL9
 627 0347 A5020000 		.4byte	0x2a5
 628 034b 59030000 		.4byte	0x359
 629 034f 15       		.uleb128 0x15
 630 0350 01       		.byte	0x1
 631 0351 50       		.byte	0x50
 632 0352 05       		.byte	0x5
 633 0353 0C       		.byte	0xc
 634 0354 A0860100 		.4byte	0x186a0
 635 0358 00       		.byte	0
 636 0359 16       		.uleb128 0x16
 637 035a 3E000000 		.4byte	.LVL10
 638 035e A5020000 		.4byte	0x2a5
 639 0362 15       		.uleb128 0x15
 640 0363 01       		.byte	0x1
 641 0364 50       		.byte	0x50
 642 0365 05       		.byte	0x5
 643 0366 0C       		.byte	0xc
 644 0367 A0860100 		.4byte	0x186a0
 645 036b 00       		.byte	0
 646 036c 00       		.byte	0
 647 036d 17       		.uleb128 0x17
 648 036e B5010000 		.4byte	.LASF55
 649 0372 01       		.byte	0x1
 650 0373 2D       		.byte	0x2d
 651 0374 9A020000 		.4byte	0x29a
 652 0378 01       		.byte	0x1
 653 0379 05       		.byte	0x5
 654 037a 03       		.byte	0x3
 655 037b 00000000 		.4byte	GPIO_InitStructure
 656 037f 18       		.uleb128 0x18
 657 0380 01       		.byte	0x1
 658 0381 4E020000 		.4byte	.LASF48
 659 0385 05       		.byte	0x5
 660 0386 EE01     		.2byte	0x1ee
 661 0388 01       		.byte	0x1
 662 0389 01       		.byte	0x1
 663 038a 99030000 		.4byte	0x399
 664 038e 19       		.uleb128 0x19
 665 038f 57000000 		.4byte	0x57
 666 0393 19       		.uleb128 0x19
 667 0394 B6000000 		.4byte	0xb6
 668 0398 00       		.byte	0
 669 0399 18       		.uleb128 0x18
 670 039a 01       		.byte	0x1
 671 039b AF000000 		.4byte	.LASF49
 672 039f 04       		.byte	0x4
 673 03a0 4001     		.2byte	0x140
 674 03a2 01       		.byte	0x1
 675 03a3 01       		.byte	0x1
 676 03a4 B3030000 		.4byte	0x3b3
ARM GAS  C:\Users\Johann\AppData\Local\Temp\ccHrT10d.s 			page 15


 677 03a8 19       		.uleb128 0x19
 678 03a9 B3030000 		.4byte	0x3b3
 679 03ad 19       		.uleb128 0x19
 680 03ae B9030000 		.4byte	0x3b9
 681 03b2 00       		.byte	0
 682 03b3 1A       		.uleb128 0x1a
 683 03b4 04       		.byte	0x4
 684 03b5 A7010000 		.4byte	0x1a7
 685 03b9 1A       		.uleb128 0x1a
 686 03ba 04       		.byte	0x4
 687 03bb 9A020000 		.4byte	0x29a
 688 03bf 00       		.byte	0
 689              		.section	.debug_abbrev,"",%progbits
 690              	.Ldebug_abbrev0:
 691 0000 01       		.uleb128 0x1
 692 0001 11       		.uleb128 0x11
 693 0002 01       		.byte	0x1
 694 0003 25       		.uleb128 0x25
 695 0004 0E       		.uleb128 0xe
 696 0005 13       		.uleb128 0x13
 697 0006 0B       		.uleb128 0xb
 698 0007 03       		.uleb128 0x3
 699 0008 0E       		.uleb128 0xe
 700 0009 1B       		.uleb128 0x1b
 701 000a 0E       		.uleb128 0xe
 702 000b 55       		.uleb128 0x55
 703 000c 06       		.uleb128 0x6
 704 000d 11       		.uleb128 0x11
 705 000e 01       		.uleb128 0x1
 706 000f 52       		.uleb128 0x52
 707 0010 01       		.uleb128 0x1
 708 0011 10       		.uleb128 0x10
 709 0012 06       		.uleb128 0x6
 710 0013 00       		.byte	0
 711 0014 00       		.byte	0
 712 0015 02       		.uleb128 0x2
 713 0016 24       		.uleb128 0x24
 714 0017 00       		.byte	0
 715 0018 0B       		.uleb128 0xb
 716 0019 0B       		.uleb128 0xb
 717 001a 3E       		.uleb128 0x3e
 718 001b 0B       		.uleb128 0xb
 719 001c 03       		.uleb128 0x3
 720 001d 0E       		.uleb128 0xe
 721 001e 00       		.byte	0
 722 001f 00       		.byte	0
 723 0020 03       		.uleb128 0x3
 724 0021 16       		.uleb128 0x16
 725 0022 00       		.byte	0
 726 0023 03       		.uleb128 0x3
 727 0024 0E       		.uleb128 0xe
 728 0025 3A       		.uleb128 0x3a
 729 0026 0B       		.uleb128 0xb
 730 0027 3B       		.uleb128 0x3b
 731 0028 0B       		.uleb128 0xb
 732 0029 49       		.uleb128 0x49
 733 002a 13       		.uleb128 0x13
ARM GAS  C:\Users\Johann\AppData\Local\Temp\ccHrT10d.s 			page 16


 734 002b 00       		.byte	0
 735 002c 00       		.byte	0
 736 002d 04       		.uleb128 0x4
 737 002e 24       		.uleb128 0x24
 738 002f 00       		.byte	0
 739 0030 0B       		.uleb128 0xb
 740 0031 0B       		.uleb128 0xb
 741 0032 3E       		.uleb128 0x3e
 742 0033 0B       		.uleb128 0xb
 743 0034 03       		.uleb128 0x3
 744 0035 08       		.uleb128 0x8
 745 0036 00       		.byte	0
 746 0037 00       		.byte	0
 747 0038 05       		.uleb128 0x5
 748 0039 35       		.uleb128 0x35
 749 003a 00       		.byte	0
 750 003b 49       		.uleb128 0x49
 751 003c 13       		.uleb128 0x13
 752 003d 00       		.byte	0
 753 003e 00       		.byte	0
 754 003f 06       		.uleb128 0x6
 755 0040 01       		.uleb128 0x1
 756 0041 01       		.byte	0x1
 757 0042 49       		.uleb128 0x49
 758 0043 13       		.uleb128 0x13
 759 0044 01       		.uleb128 0x1
 760 0045 13       		.uleb128 0x13
 761 0046 00       		.byte	0
 762 0047 00       		.byte	0
 763 0048 07       		.uleb128 0x7
 764 0049 21       		.uleb128 0x21
 765 004a 00       		.byte	0
 766 004b 49       		.uleb128 0x49
 767 004c 13       		.uleb128 0x13
 768 004d 2F       		.uleb128 0x2f
 769 004e 0B       		.uleb128 0xb
 770 004f 00       		.byte	0
 771 0050 00       		.byte	0
 772 0051 08       		.uleb128 0x8
 773 0052 04       		.uleb128 0x4
 774 0053 01       		.byte	0x1
 775 0054 0B       		.uleb128 0xb
 776 0055 0B       		.uleb128 0xb
 777 0056 3A       		.uleb128 0x3a
 778 0057 0B       		.uleb128 0xb
 779 0058 3B       		.uleb128 0x3b
 780 0059 0B       		.uleb128 0xb
 781 005a 01       		.uleb128 0x1
 782 005b 13       		.uleb128 0x13
 783 005c 00       		.byte	0
 784 005d 00       		.byte	0
 785 005e 09       		.uleb128 0x9
 786 005f 28       		.uleb128 0x28
 787 0060 00       		.byte	0
 788 0061 03       		.uleb128 0x3
 789 0062 0E       		.uleb128 0xe
 790 0063 1C       		.uleb128 0x1c
ARM GAS  C:\Users\Johann\AppData\Local\Temp\ccHrT10d.s 			page 17


 791 0064 0D       		.uleb128 0xd
 792 0065 00       		.byte	0
 793 0066 00       		.byte	0
 794 0067 0A       		.uleb128 0xa
 795 0068 13       		.uleb128 0x13
 796 0069 01       		.byte	0x1
 797 006a 0B       		.uleb128 0xb
 798 006b 0B       		.uleb128 0xb
 799 006c 3A       		.uleb128 0x3a
 800 006d 0B       		.uleb128 0xb
 801 006e 3B       		.uleb128 0x3b
 802 006f 05       		.uleb128 0x5
 803 0070 01       		.uleb128 0x1
 804 0071 13       		.uleb128 0x13
 805 0072 00       		.byte	0
 806 0073 00       		.byte	0
 807 0074 0B       		.uleb128 0xb
 808 0075 0D       		.uleb128 0xd
 809 0076 00       		.byte	0
 810 0077 03       		.uleb128 0x3
 811 0078 0E       		.uleb128 0xe
 812 0079 3A       		.uleb128 0x3a
 813 007a 0B       		.uleb128 0xb
 814 007b 3B       		.uleb128 0x3b
 815 007c 05       		.uleb128 0x5
 816 007d 49       		.uleb128 0x49
 817 007e 13       		.uleb128 0x13
 818 007f 38       		.uleb128 0x38
 819 0080 0A       		.uleb128 0xa
 820 0081 00       		.byte	0
 821 0082 00       		.byte	0
 822 0083 0C       		.uleb128 0xc
 823 0084 0D       		.uleb128 0xd
 824 0085 00       		.byte	0
 825 0086 03       		.uleb128 0x3
 826 0087 08       		.uleb128 0x8
 827 0088 3A       		.uleb128 0x3a
 828 0089 0B       		.uleb128 0xb
 829 008a 3B       		.uleb128 0x3b
 830 008b 05       		.uleb128 0x5
 831 008c 49       		.uleb128 0x49
 832 008d 13       		.uleb128 0x13
 833 008e 38       		.uleb128 0x38
 834 008f 0A       		.uleb128 0xa
 835 0090 00       		.byte	0
 836 0091 00       		.byte	0
 837 0092 0D       		.uleb128 0xd
 838 0093 16       		.uleb128 0x16
 839 0094 00       		.byte	0
 840 0095 03       		.uleb128 0x3
 841 0096 0E       		.uleb128 0xe
 842 0097 3A       		.uleb128 0x3a
 843 0098 0B       		.uleb128 0xb
 844 0099 3B       		.uleb128 0x3b
 845 009a 05       		.uleb128 0x5
 846 009b 49       		.uleb128 0x49
 847 009c 13       		.uleb128 0x13
ARM GAS  C:\Users\Johann\AppData\Local\Temp\ccHrT10d.s 			page 18


 848 009d 00       		.byte	0
 849 009e 00       		.byte	0
 850 009f 0E       		.uleb128 0xe
 851 00a0 13       		.uleb128 0x13
 852 00a1 01       		.byte	0x1
 853 00a2 0B       		.uleb128 0xb
 854 00a3 0B       		.uleb128 0xb
 855 00a4 3A       		.uleb128 0x3a
 856 00a5 0B       		.uleb128 0xb
 857 00a6 3B       		.uleb128 0x3b
 858 00a7 0B       		.uleb128 0xb
 859 00a8 01       		.uleb128 0x1
 860 00a9 13       		.uleb128 0x13
 861 00aa 00       		.byte	0
 862 00ab 00       		.byte	0
 863 00ac 0F       		.uleb128 0xf
 864 00ad 0D       		.uleb128 0xd
 865 00ae 00       		.byte	0
 866 00af 03       		.uleb128 0x3
 867 00b0 0E       		.uleb128 0xe
 868 00b1 3A       		.uleb128 0x3a
 869 00b2 0B       		.uleb128 0xb
 870 00b3 3B       		.uleb128 0x3b
 871 00b4 0B       		.uleb128 0xb
 872 00b5 49       		.uleb128 0x49
 873 00b6 13       		.uleb128 0x13
 874 00b7 38       		.uleb128 0x38
 875 00b8 0A       		.uleb128 0xa
 876 00b9 00       		.byte	0
 877 00ba 00       		.byte	0
 878 00bb 10       		.uleb128 0x10
 879 00bc 2E       		.uleb128 0x2e
 880 00bd 01       		.byte	0x1
 881 00be 3F       		.uleb128 0x3f
 882 00bf 0C       		.uleb128 0xc
 883 00c0 03       		.uleb128 0x3
 884 00c1 0E       		.uleb128 0xe
 885 00c2 3A       		.uleb128 0x3a
 886 00c3 0B       		.uleb128 0xb
 887 00c4 3B       		.uleb128 0x3b
 888 00c5 0B       		.uleb128 0xb
 889 00c6 27       		.uleb128 0x27
 890 00c7 0C       		.uleb128 0xc
 891 00c8 11       		.uleb128 0x11
 892 00c9 01       		.uleb128 0x1
 893 00ca 12       		.uleb128 0x12
 894 00cb 01       		.uleb128 0x1
 895 00cc 40       		.uleb128 0x40
 896 00cd 06       		.uleb128 0x6
 897 00ce 9742     		.uleb128 0x2117
 898 00d0 0C       		.uleb128 0xc
 899 00d1 01       		.uleb128 0x1
 900 00d2 13       		.uleb128 0x13
 901 00d3 00       		.byte	0
 902 00d4 00       		.byte	0
 903 00d5 11       		.uleb128 0x11
 904 00d6 05       		.uleb128 0x5
ARM GAS  C:\Users\Johann\AppData\Local\Temp\ccHrT10d.s 			page 19


 905 00d7 00       		.byte	0
 906 00d8 03       		.uleb128 0x3
 907 00d9 08       		.uleb128 0x8
 908 00da 3A       		.uleb128 0x3a
 909 00db 0B       		.uleb128 0xb
 910 00dc 3B       		.uleb128 0x3b
 911 00dd 0B       		.uleb128 0xb
 912 00de 49       		.uleb128 0x49
 913 00df 13       		.uleb128 0x13
 914 00e0 02       		.uleb128 0x2
 915 00e1 0A       		.uleb128 0xa
 916 00e2 00       		.byte	0
 917 00e3 00       		.byte	0
 918 00e4 12       		.uleb128 0x12
 919 00e5 34       		.uleb128 0x34
 920 00e6 00       		.byte	0
 921 00e7 03       		.uleb128 0x3
 922 00e8 08       		.uleb128 0x8
 923 00e9 3A       		.uleb128 0x3a
 924 00ea 0B       		.uleb128 0xb
 925 00eb 3B       		.uleb128 0x3b
 926 00ec 0B       		.uleb128 0xb
 927 00ed 49       		.uleb128 0x49
 928 00ee 13       		.uleb128 0x13
 929 00ef 02       		.uleb128 0x2
 930 00f0 06       		.uleb128 0x6
 931 00f1 00       		.byte	0
 932 00f2 00       		.byte	0
 933 00f3 13       		.uleb128 0x13
 934 00f4 2E       		.uleb128 0x2e
 935 00f5 01       		.byte	0x1
 936 00f6 3F       		.uleb128 0x3f
 937 00f7 0C       		.uleb128 0xc
 938 00f8 03       		.uleb128 0x3
 939 00f9 0E       		.uleb128 0xe
 940 00fa 3A       		.uleb128 0x3a
 941 00fb 0B       		.uleb128 0xb
 942 00fc 3B       		.uleb128 0x3b
 943 00fd 0B       		.uleb128 0xb
 944 00fe 27       		.uleb128 0x27
 945 00ff 0C       		.uleb128 0xc
 946 0100 49       		.uleb128 0x49
 947 0101 13       		.uleb128 0x13
 948 0102 11       		.uleb128 0x11
 949 0103 01       		.uleb128 0x1
 950 0104 12       		.uleb128 0x12
 951 0105 01       		.uleb128 0x1
 952 0106 40       		.uleb128 0x40
 953 0107 06       		.uleb128 0x6
 954 0108 9742     		.uleb128 0x2117
 955 010a 0C       		.uleb128 0xc
 956 010b 01       		.uleb128 0x1
 957 010c 13       		.uleb128 0x13
 958 010d 00       		.byte	0
 959 010e 00       		.byte	0
 960 010f 14       		.uleb128 0x14
 961 0110 898201   		.uleb128 0x4109
ARM GAS  C:\Users\Johann\AppData\Local\Temp\ccHrT10d.s 			page 20


 962 0113 01       		.byte	0x1
 963 0114 11       		.uleb128 0x11
 964 0115 01       		.uleb128 0x1
 965 0116 31       		.uleb128 0x31
 966 0117 13       		.uleb128 0x13
 967 0118 01       		.uleb128 0x1
 968 0119 13       		.uleb128 0x13
 969 011a 00       		.byte	0
 970 011b 00       		.byte	0
 971 011c 15       		.uleb128 0x15
 972 011d 8A8201   		.uleb128 0x410a
 973 0120 00       		.byte	0
 974 0121 02       		.uleb128 0x2
 975 0122 0A       		.uleb128 0xa
 976 0123 9142     		.uleb128 0x2111
 977 0125 0A       		.uleb128 0xa
 978 0126 00       		.byte	0
 979 0127 00       		.byte	0
 980 0128 16       		.uleb128 0x16
 981 0129 898201   		.uleb128 0x4109
 982 012c 01       		.byte	0x1
 983 012d 11       		.uleb128 0x11
 984 012e 01       		.uleb128 0x1
 985 012f 31       		.uleb128 0x31
 986 0130 13       		.uleb128 0x13
 987 0131 00       		.byte	0
 988 0132 00       		.byte	0
 989 0133 17       		.uleb128 0x17
 990 0134 34       		.uleb128 0x34
 991 0135 00       		.byte	0
 992 0136 03       		.uleb128 0x3
 993 0137 0E       		.uleb128 0xe
 994 0138 3A       		.uleb128 0x3a
 995 0139 0B       		.uleb128 0xb
 996 013a 3B       		.uleb128 0x3b
 997 013b 0B       		.uleb128 0xb
 998 013c 49       		.uleb128 0x49
 999 013d 13       		.uleb128 0x13
 1000 013e 3F       		.uleb128 0x3f
 1001 013f 0C       		.uleb128 0xc
 1002 0140 02       		.uleb128 0x2
 1003 0141 0A       		.uleb128 0xa
 1004 0142 00       		.byte	0
 1005 0143 00       		.byte	0
 1006 0144 18       		.uleb128 0x18
 1007 0145 2E       		.uleb128 0x2e
 1008 0146 01       		.byte	0x1
 1009 0147 3F       		.uleb128 0x3f
 1010 0148 0C       		.uleb128 0xc
 1011 0149 03       		.uleb128 0x3
 1012 014a 0E       		.uleb128 0xe
 1013 014b 3A       		.uleb128 0x3a
 1014 014c 0B       		.uleb128 0xb
 1015 014d 3B       		.uleb128 0x3b
 1016 014e 05       		.uleb128 0x5
 1017 014f 27       		.uleb128 0x27
 1018 0150 0C       		.uleb128 0xc
ARM GAS  C:\Users\Johann\AppData\Local\Temp\ccHrT10d.s 			page 21


 1019 0151 3C       		.uleb128 0x3c
 1020 0152 0C       		.uleb128 0xc
 1021 0153 01       		.uleb128 0x1
 1022 0154 13       		.uleb128 0x13
 1023 0155 00       		.byte	0
 1024 0156 00       		.byte	0
 1025 0157 19       		.uleb128 0x19
 1026 0158 05       		.uleb128 0x5
 1027 0159 00       		.byte	0
 1028 015a 49       		.uleb128 0x49
 1029 015b 13       		.uleb128 0x13
 1030 015c 00       		.byte	0
 1031 015d 00       		.byte	0
 1032 015e 1A       		.uleb128 0x1a
 1033 015f 0F       		.uleb128 0xf
 1034 0160 00       		.byte	0
 1035 0161 0B       		.uleb128 0xb
 1036 0162 0B       		.uleb128 0xb
 1037 0163 49       		.uleb128 0x49
 1038 0164 13       		.uleb128 0x13
 1039 0165 00       		.byte	0
 1040 0166 00       		.byte	0
 1041 0167 00       		.byte	0
 1042              		.section	.debug_loc,"",%progbits
 1043              	.Ldebug_loc0:
 1044              	.LLST0:
 1045 0000 00000000 		.4byte	.LFB33
 1046 0004 02000000 		.4byte	.LCFI0
 1047 0008 0200     		.2byte	0x2
 1048 000a 7D       		.byte	0x7d
 1049 000b 00       		.sleb128 0
 1050 000c 02000000 		.4byte	.LCFI0
 1051 0010 1A000000 		.4byte	.LFE33
 1052 0014 0200     		.2byte	0x2
 1053 0016 7D       		.byte	0x7d
 1054 0017 10       		.sleb128 16
 1055 0018 00000000 		.4byte	0
 1056 001c 00000000 		.4byte	0
 1057              	.LLST1:
 1058 0020 06000000 		.4byte	.LVL1
 1059 0024 10000000 		.4byte	.LVL5
 1060 0028 0200     		.2byte	0x2
 1061 002a 91       		.byte	0x91
 1062 002b 70       		.sleb128 -16
 1063 002c 10000000 		.4byte	.LVL5
 1064 0030 14000000 		.4byte	.LVL6
 1065 0034 0100     		.2byte	0x1
 1066 0036 53       		.byte	0x53
 1067 0037 14000000 		.4byte	.LVL6
 1068 003b 1A000000 		.4byte	.LFE33
 1069 003f 0200     		.2byte	0x2
 1070 0041 91       		.byte	0x91
 1071 0042 70       		.sleb128 -16
 1072 0043 00000000 		.4byte	0
 1073 0047 00000000 		.4byte	0
 1074              	.LLST2:
 1075 004b 06000000 		.4byte	.LVL1
ARM GAS  C:\Users\Johann\AppData\Local\Temp\ccHrT10d.s 			page 22


 1076 004f 0A000000 		.4byte	.LVL2
 1077 0053 0200     		.2byte	0x2
 1078 0055 91       		.byte	0x91
 1079 0056 74       		.sleb128 -12
 1080 0057 0C000000 		.4byte	.LVL3
 1081 005b 0E000000 		.4byte	.LVL4
 1082 005f 0100     		.2byte	0x1
 1083 0061 53       		.byte	0x53
 1084 0062 0E000000 		.4byte	.LVL4
 1085 0066 1A000000 		.4byte	.LFE33
 1086 006a 0200     		.2byte	0x2
 1087 006c 91       		.byte	0x91
 1088 006d 74       		.sleb128 -12
 1089 006e 00000000 		.4byte	0
 1090 0072 00000000 		.4byte	0
 1091              	.LLST3:
 1092 0076 00000000 		.4byte	.LFB32
 1093 007a 04000000 		.4byte	.LCFI1
 1094 007e 0200     		.2byte	0x2
 1095 0080 7D       		.byte	0x7d
 1096 0081 00       		.sleb128 0
 1097 0082 04000000 		.4byte	.LCFI1
 1098 0086 4C000000 		.4byte	.LFE32
 1099 008a 0200     		.2byte	0x2
 1100 008c 7D       		.byte	0x7d
 1101 008d 10       		.sleb128 16
 1102 008e 00000000 		.4byte	0
 1103 0092 00000000 		.4byte	0
 1104              		.section	.debug_aranges,"",%progbits
 1105 0000 24000000 		.4byte	0x24
 1106 0004 0200     		.2byte	0x2
 1107 0006 00000000 		.4byte	.Ldebug_info0
 1108 000a 04       		.byte	0x4
 1109 000b 00       		.byte	0
 1110 000c 0000     		.2byte	0
 1111 000e 0000     		.2byte	0
 1112 0010 00000000 		.4byte	.Ltext0
 1113 0014 1A000000 		.4byte	.Letext0-.Ltext0
 1114 0018 00000000 		.4byte	.LFB32
 1115 001c 4C000000 		.4byte	.LFE32-.LFB32
 1116 0020 00000000 		.4byte	0
 1117 0024 00000000 		.4byte	0
 1118              		.section	.debug_ranges,"",%progbits
 1119              	.Ldebug_ranges0:
 1120 0000 00000000 		.4byte	.Ltext0
 1121 0004 1A000000 		.4byte	.Letext0
 1122 0008 00000000 		.4byte	.LFB32
 1123 000c 4C000000 		.4byte	.LFE32
 1124 0010 00000000 		.4byte	0
 1125 0014 00000000 		.4byte	0
 1126              		.section	.debug_line,"",%progbits
 1127              	.Ldebug_line0:
 1128 0000 86010000 		.section	.debug_str,"MS",%progbits,1
 1128      02002D01 
 1128      00000201 
 1128      FB0E0D00 
 1128      01010101 
ARM GAS  C:\Users\Johann\AppData\Local\Temp\ccHrT10d.s 			page 23


 1129              	.LASF52:
 1130 0000 433A5C6D 		.ascii	"C:\\mo\\SoftwareWork\\EclipeWorkspace\\MB1034B_A0_i"
 1130      6F5C536F 
 1130      66747761 
 1130      7265576F 
 1130      726B5C45 
 1131 002f 6F746F67 		.ascii	"otoggle0\000"
 1131      676C6530 
 1131      00
 1132              	.LASF19:
 1133 0038 50555044 		.ascii	"PUPDR\000"
 1133      5200
 1134              	.LASF23:
 1135 003e 4C434B52 		.ascii	"LCKR\000"
 1135      00
 1136              	.LASF39:
 1137 0043 4750494F 		.ascii	"GPIO_PuPd_UP\000"
 1137      5F507550 
 1137      645F5550 
 1137      00
 1138              	.LASF16:
 1139 0050 4F545950 		.ascii	"OTYPER\000"
 1139      455200
 1140              	.LASF31:
 1141 0057 4750494F 		.ascii	"GPIO_OType_PP\000"
 1141      5F4F5479 
 1141      70655F50 
 1141      5000
 1142              	.LASF12:
 1143 0065 44495341 		.ascii	"DISABLE\000"
 1143      424C4500 
 1144              	.LASF15:
 1145 006d 4D4F4445 		.ascii	"MODER\000"
 1145      5200
 1146              	.LASF9:
 1147 0073 6C6F6E67 		.ascii	"long long unsigned int\000"
 1147      206C6F6E 
 1147      6720756E 
 1147      7369676E 
 1147      65642069 
 1148              	.LASF28:
 1149 008a 4750494F 		.ascii	"GPIO_Mode_AF\000"
 1149      5F4D6F64 
 1149      655F4146 
 1149      00
 1150              	.LASF44:
 1151 0097 4750494F 		.ascii	"GPIO_Speed\000"
 1151      5F537065 
 1151      656400
 1152              	.LASF29:
 1153 00a2 4750494F 		.ascii	"GPIO_Mode_AN\000"
 1153      5F4D6F64 
 1153      655F414E 
 1153      00
 1154              	.LASF49:
 1155 00af 4750494F 		.ascii	"GPIO_Init\000"
 1155      5F496E69 
ARM GAS  C:\Users\Johann\AppData\Local\Temp\ccHrT10d.s 			page 24


 1155      7400
 1156              	.LASF8:
 1157 00b9 6C6F6E67 		.ascii	"long long int\000"
 1157      206C6F6E 
 1157      6720696E 
 1157      7400
 1158              	.LASF0:
 1159 00c7 7369676E 		.ascii	"signed char\000"
 1159      65642063 
 1159      68617200 
 1160              	.LASF22:
 1161 00d3 42535252 		.ascii	"BSRR\000"
 1161      00
 1162              	.LASF26:
 1163 00d8 4750494F 		.ascii	"GPIO_Mode_IN\000"
 1163      5F4D6F64 
 1163      655F494E 
 1163      00
 1164              	.LASF4:
 1165 00e5 6C6F6E67 		.ascii	"long int\000"
 1165      20696E74 
 1165      00
 1166              	.LASF13:
 1167 00ee 454E4142 		.ascii	"ENABLE\000"
 1167      4C4500
 1168              	.LASF5:
 1169 00f5 75696E74 		.ascii	"uint16_t\000"
 1169      31365F74 
 1169      00
 1170              	.LASF33:
 1171 00fe 4750494F 		.ascii	"GPIOOType_TypeDef\000"
 1171      4F547970 
 1171      655F5479 
 1171      70654465 
 1171      6600
 1172              	.LASF18:
 1173 0110 4F535045 		.ascii	"OSPEEDR\000"
 1173      45445200 
 1174              	.LASF37:
 1175 0118 4750494F 		.ascii	"GPIOSpeed_TypeDef\000"
 1175      53706565 
 1175      645F5479 
 1175      70654465 
 1175      6600
 1176              	.LASF42:
 1177 012a 4750494F 		.ascii	"GPIO_Pin\000"
 1177      5F50696E 
 1177      00
 1178              	.LASF10:
 1179 0133 756E7369 		.ascii	"unsigned int\000"
 1179      676E6564 
 1179      20696E74 
 1179      00
 1180              	.LASF51:
 1181 0140 2E5C7372 		.ascii	".\\src\\main.c\000"
 1181      635C6D61 
 1181      696E2E63 
ARM GAS  C:\Users\Johann\AppData\Local\Temp\ccHrT10d.s 			page 25


 1181      00
 1182              	.LASF7:
 1183 014d 6C6F6E67 		.ascii	"long unsigned int\000"
 1183      20756E73 
 1183      69676E65 
 1183      6420696E 
 1183      7400
 1184              	.LASF25:
 1185 015f 4750494F 		.ascii	"GPIO_TypeDef\000"
 1185      5F547970 
 1185      65446566 
 1185      00
 1186              	.LASF3:
 1187 016c 73686F72 		.ascii	"short unsigned int\000"
 1187      7420756E 
 1187      7369676E 
 1187      65642069 
 1187      6E7400
 1188              	.LASF41:
 1189 017f 4750494F 		.ascii	"GPIOPuPd_TypeDef\000"
 1189      50755064 
 1189      5F547970 
 1189      65446566 
 1189      00
 1190              	.LASF38:
 1191 0190 4750494F 		.ascii	"GPIO_PuPd_NOPULL\000"
 1191      5F507550 
 1191      645F4E4F 
 1191      50554C4C 
 1191      00
 1192              	.LASF11:
 1193 01a1 73697A65 		.ascii	"sizetype\000"
 1193      74797065 
 1193      00
 1194              	.LASF45:
 1195 01aa 4750494F 		.ascii	"GPIO_OType\000"
 1195      5F4F5479 
 1195      706500
 1196              	.LASF55:
 1197 01b5 4750494F 		.ascii	"GPIO_InitStructure\000"
 1197      5F496E69 
 1197      74537472 
 1197      75637475 
 1197      726500
 1198              	.LASF47:
 1199 01c8 4750494F 		.ascii	"GPIO_InitTypeDef\000"
 1199      5F496E69 
 1199      74547970 
 1199      65446566 
 1199      00
 1200              	.LASF14:
 1201 01d9 46756E63 		.ascii	"FunctionalState\000"
 1201      74696F6E 
 1201      616C5374 
 1201      61746500 
 1202              	.LASF50:
 1203 01e9 474E5520 		.ascii	"GNU C 4.7.2\000"
ARM GAS  C:\Users\Johann\AppData\Local\Temp\ccHrT10d.s 			page 26


 1203      4320342E 
 1203      372E3200 
 1204              	.LASF17:
 1205 01f5 52455345 		.ascii	"RESERVED0\000"
 1205      52564544 
 1205      3000
 1206              	.LASF20:
 1207 01ff 52455345 		.ascii	"RESERVED1\000"
 1207      52564544 
 1207      3100
 1208              	.LASF21:
 1209 0209 52455345 		.ascii	"RESERVED2\000"
 1209      52564544 
 1209      3200
 1210              	.LASF24:
 1211 0213 52455345 		.ascii	"RESERVED3\000"
 1211      52564544 
 1211      3300
 1212              	.LASF1:
 1213 021d 756E7369 		.ascii	"unsigned char\000"
 1213      676E6564 
 1213      20636861 
 1213      7200
 1214              	.LASF53:
 1215 022b 64656C61 		.ascii	"delay\000"
 1215      7900
 1216              	.LASF2:
 1217 0231 73686F72 		.ascii	"short int\000"
 1217      7420696E 
 1217      7400
 1218              	.LASF6:
 1219 023b 75696E74 		.ascii	"uint32_t\000"
 1219      33325F74 
 1219      00
 1220              	.LASF46:
 1221 0244 4750494F 		.ascii	"GPIO_PuPd\000"
 1221      5F507550 
 1221      6400
 1222              	.LASF48:
 1223 024e 5243435F 		.ascii	"RCC_AHBPeriphClockCmd\000"
 1223      41484250 
 1223      65726970 
 1223      68436C6F 
 1223      636B436D 
 1224              	.LASF34:
 1225 0264 4750494F 		.ascii	"GPIO_Speed_Level_1\000"
 1225      5F537065 
 1225      65645F4C 
 1225      6576656C 
 1225      5F3100
 1226              	.LASF35:
 1227 0277 4750494F 		.ascii	"GPIO_Speed_Level_2\000"
 1227      5F537065 
 1227      65645F4C 
 1227      6576656C 
 1227      5F3200
 1228              	.LASF36:
ARM GAS  C:\Users\Johann\AppData\Local\Temp\ccHrT10d.s 			page 27


 1229 028a 4750494F 		.ascii	"GPIO_Speed_Level_3\000"
 1229      5F537065 
 1229      65645F4C 
 1229      6576656C 
 1229      5F3300
 1230              	.LASF43:
 1231 029d 4750494F 		.ascii	"GPIO_Mode\000"
 1231      5F4D6F64 
 1231      6500
 1232              	.LASF32:
 1233 02a7 4750494F 		.ascii	"GPIO_OType_OD\000"
 1233      5F4F5479 
 1233      70655F4F 
 1233      4400
 1234              	.LASF40:
 1235 02b5 4750494F 		.ascii	"GPIO_PuPd_DOWN\000"
 1235      5F507550 
 1235      645F444F 
 1235      574E00
 1236              	.LASF30:
 1237 02c4 4750494F 		.ascii	"GPIOMode_TypeDef\000"
 1237      4D6F6465 
 1237      5F547970 
 1237      65446566 
 1237      00
 1238              	.LASF27:
 1239 02d5 4750494F 		.ascii	"GPIO_Mode_OUT\000"
 1239      5F4D6F64 
 1239      655F4F55 
 1239      5400
 1240              	.LASF54:
 1241 02e3 6D61696E 		.ascii	"main\000"
 1241      00
 1242              		.ident	"GCC: (GNU) 4.7.2"
ARM GAS  C:\Users\Johann\AppData\Local\Temp\ccHrT10d.s 			page 28


DEFINED SYMBOLS
                            *ABS*:00000000 main.c
C:\Users\Johann\AppData\Local\Temp\ccHrT10d.s:66     .text:00000000 $t
C:\Users\Johann\AppData\Local\Temp\ccHrT10d.s:71     .text:00000000 delay
C:\Users\Johann\AppData\Local\Temp\ccHrT10d.s:113    .text.startup:00000000 $t
C:\Users\Johann\AppData\Local\Temp\ccHrT10d.s:118    .text.startup:00000000 main
C:\Users\Johann\AppData\Local\Temp\ccHrT10d.s:180    .text.startup:00000040 $d
                            *COM*:00000008 GPIO_InitStructure
                     .debug_frame:00000010 $d

UNDEFINED SYMBOLS
RCC_AHBPeriphClockCmd
GPIO_Init
