ARM GAS  C:\Users\Johann\AppData\Local\Temp\cc47dTx4.s 			page 1


   1              		.cpu cortex-m0
   2              		.fpu softvfp
   3              		.eabi_attribute 20, 1	@ Tag_ABI_FP_denormal
   4              		.eabi_attribute 21, 1	@ Tag_ABI_FP_exceptions
   5              		.eabi_attribute 23, 3	@ Tag_ABI_FP_number_model
   6              		.eabi_attribute 24, 1	@ Tag_ABI_align8_needed
   7              		.eabi_attribute 25, 1	@ Tag_ABI_align8_preserved
   8              		.eabi_attribute 26, 1	@ Tag_ABI_enum_size
   9              		.eabi_attribute 30, 4	@ Tag_ABI_optimization_goals
  10              		.eabi_attribute 34, 0	@ Tag_CPU_unaligned_access
  11              		.eabi_attribute 18, 4	@ Tag_ABI_PCS_wchar_t
  12              		.file	"system_stm32f0xx.c"
  13              	@ GNU C (GCC) version 4.7.2 (arm-none-eabi)
  14              	@	compiled by GNU C version 3.4.5 (mingw-vista special r3), GMP version 5.0.4, MPFR version 2.4.2, 
  15              	@ GGC heuristics: --param ggc-min-expand=100 --param ggc-min-heapsize=131072
  16              	@ options passed:  -I .
  17              	@ -I ..\STM32F0-Discovery_FW_V1.0.0\Libraries\CMSIS\ST\STM32F0xx\Include
  18              	@ -I ..\STM32F0-Discovery_FW_V1.0.0\Libraries\CMSIS\Include
  19              	@ -I ..\STM32F0-Discovery_FW_V1.0.0\Libraries\STM32F0xx_StdPeriph_Driver\inc
  20              	@ -I ..\STM32F0-Discovery_FW_V1.0.0\Utilities\STM32F0-Discovery -I .\inc
  21              	@ -imultilib thumb/v6m
  22              	@ -iprefix c:\yagarto-20121222\bin\../lib/gcc/arm-none-eabi/4.7.2/
  23              	@ -MD .\src\system_stm32f0xx.d -MF .dep\system_stm32f0xx.o.d -MP
  24              	@ -MQ .\src\system_stm32f0xx.o -D__USES_INITFINI__ -D STM32F0XX
  25              	@ -D USE_STDPERIPH_DRIVER -D RUN_FROM_FLASH=1 .\src\system_stm32f0xx.c
  26              	@ -mcpu=cortex-m0 -mthumb -auxbase-strip .\src\system_stm32f0xx.o -gdwarf-2
  27              	@ -Os -Wall -Wstrict-prototypes -fomit-frame-pointer -fverbose-asm
  28              	@ options enabled:  -fauto-inc-dec -fbranch-count-reg -fcaller-saves
  29              	@ -fcombine-stack-adjustments -fcommon -fcompare-elim -fcprop-registers
  30              	@ -fcrossjumping -fcse-follow-jumps -fdebug-types-section -fdefer-pop
  31              	@ -fdelete-null-pointer-checks -fdevirtualize -fdwarf2-cfi-asm
  32              	@ -fearly-inlining -feliminate-unused-debug-types -fexpensive-optimizations
  33              	@ -fforward-propagate -ffunction-cse -fgcse -fgcse-lm -fgnu-runtime
  34              	@ -fguess-branch-probability -fident -fif-conversion -fif-conversion2
  35              	@ -findirect-inlining -finline -finline-atomics -finline-functions
  36              	@ -finline-functions-called-once -finline-small-functions -fipa-cp
  37              	@ -fipa-profile -fipa-pure-const -fipa-reference -fipa-sra
  38              	@ -fira-share-save-slots -fira-share-spill-slots -fivopts
  39              	@ -fkeep-static-consts -fleading-underscore -fmath-errno -fmerge-constants
  40              	@ -fmerge-debug-strings -fmove-loop-invariants -fomit-frame-pointer
  41              	@ -foptimize-register-move -foptimize-sibling-calls -fpartial-inlining
  42              	@ -fpeephole -fpeephole2 -fprefetch-loop-arrays -freg-struct-return
  43              	@ -fregmove -freorder-blocks -freorder-functions -frerun-cse-after-loop
  44              	@ -fsched-critical-path-heuristic -fsched-dep-count-heuristic
  45              	@ -fsched-group-heuristic -fsched-interblock -fsched-last-insn-heuristic
  46              	@ -fsched-rank-heuristic -fsched-spec -fsched-spec-insn-heuristic
  47              	@ -fsched-stalled-insns-dep -fschedule-insns2 -fsection-anchors
  48              	@ -fshow-column -fshrink-wrap -fsigned-zeros -fsplit-ivs-in-unroller
  49              	@ -fsplit-wide-types -fstrict-aliasing -fstrict-overflow
  50              	@ -fstrict-volatile-bitfields -fthread-jumps -ftoplevel-reorder
  51              	@ -ftrapping-math -ftree-bit-ccp -ftree-builtin-call-dce -ftree-ccp
  52              	@ -ftree-ch -ftree-copy-prop -ftree-copyrename -ftree-cselim -ftree-dce
  53              	@ -ftree-dominator-opts -ftree-dse -ftree-forwprop -ftree-fre
  54              	@ -ftree-loop-if-convert -ftree-loop-im -ftree-loop-ivcanon
  55              	@ -ftree-loop-optimize -ftree-parallelize-loops= -ftree-phiprop -ftree-pre
  56              	@ -ftree-pta -ftree-reassoc -ftree-scev-cprop -ftree-sink
  57              	@ -ftree-slp-vectorize -ftree-sra -ftree-switch-conversion
ARM GAS  C:\Users\Johann\AppData\Local\Temp\cc47dTx4.s 			page 2


  58              	@ -ftree-tail-merge -ftree-ter -ftree-vect-loop-version -ftree-vrp
  59              	@ -funit-at-a-time -fvar-tracking -fvar-tracking-assignments -fverbose-asm
  60              	@ -fzero-initialized-in-bss -mlittle-endian -msched-prolog -mthumb
  61              	@ -mvectorize-with-neon-quad
  62              	
  63              		.text
  64              	.Ltext0:
  65              		.cfi_sections	.debug_frame
  66              		.align	1
  67              		.global	SystemInit
  68              		.code	16
  69              		.thumb_func
  70              		.type	SystemInit, %function
  71              	SystemInit:
  72              	.LFB32:
  73              		.file 1 ".\\src\\system_stm32f0xx.c"
   1:.\src/system_stm32f0xx.c **** /**
   2:.\src/system_stm32f0xx.c ****   ******************************************************************************
   3:.\src/system_stm32f0xx.c ****   * @file    system_stm32f0xx.c
   4:.\src/system_stm32f0xx.c ****   * @author  MCD Application Team
   5:.\src/system_stm32f0xx.c ****   * @version V1.0.0
   6:.\src/system_stm32f0xx.c ****   * @date    23-March-2012
   7:.\src/system_stm32f0xx.c ****   * @brief   CMSIS Cortex-M0 Device Peripheral Access Layer System Source File.
   8:.\src/system_stm32f0xx.c ****   *          This file contains the system clock configuration for STM32F0xx devices,
   9:.\src/system_stm32f0xx.c ****   *          and is customized for use with STM32F0-DISCOVERY Kit. 
  10:.\src/system_stm32f0xx.c ****   *          The STM32F0xx is configured to run at 48 MHz, following the three  
  11:.\src/system_stm32f0xx.c ****   *          configuration below:
  12:.\src/system_stm32f0xx.c ****   *            - PLL_SOURCE_HSI (default): HSI (~8MHz) used to clock the PLL, and
  13:.\src/system_stm32f0xx.c ****   *                                        the PLL is used as system clock source.  
  14:.\src/system_stm32f0xx.c ****   *            - PLL_SOURCE_HSE          : HSE (8MHz) used to clock the PLL, and 
  15:.\src/system_stm32f0xx.c ****   *                                        the PLL is used as system clock source.
  16:.\src/system_stm32f0xx.c ****   *            - PLL_SOURCE_HSE_BYPASS   : HSE bypassed with an external clock 
  17:.\src/system_stm32f0xx.c ****   *                                        (8MHz, coming from ST-Link) used to clock
  18:.\src/system_stm32f0xx.c ****   *                                        the PLL, and the PLL is used as system
  19:.\src/system_stm32f0xx.c ****   *                                        clock source.  
  20:.\src/system_stm32f0xx.c ****   *
  21:.\src/system_stm32f0xx.c ****   *  
  22:.\src/system_stm32f0xx.c ****   * 1.  This file provides two functions and one global variable to be called from 
  23:.\src/system_stm32f0xx.c ****   *     user application:
  24:.\src/system_stm32f0xx.c ****   *      - SystemInit(): Setups the system clock (System clock source, PLL Multiplier
  25:.\src/system_stm32f0xx.c ****   *                      and Divider factors, AHB/APBx prescalers and Flash settings),
  26:.\src/system_stm32f0xx.c ****   *                      depending on the configuration selected (see above).
  27:.\src/system_stm32f0xx.c ****   *                      This function is called at startup just after reset and 
  28:.\src/system_stm32f0xx.c ****   *                      before branch to main program. This call is made inside
  29:.\src/system_stm32f0xx.c ****   *                      the "startup_stm32f0xx.s" file.
  30:.\src/system_stm32f0xx.c ****   *
  31:.\src/system_stm32f0xx.c ****   *      - SystemCoreClock variable: Contains the core clock (HCLK), it can be used
  32:.\src/system_stm32f0xx.c ****   *                                  by the user application to setup the SysTick 
  33:.\src/system_stm32f0xx.c ****   *                                  timer or configure other parameters.
  34:.\src/system_stm32f0xx.c ****   *
  35:.\src/system_stm32f0xx.c ****   *      - SystemCoreClockUpdate(): Updates the variable SystemCoreClock and must
  36:.\src/system_stm32f0xx.c ****   *                                 be called whenever the core clock is changed
  37:.\src/system_stm32f0xx.c ****   *                                 during program execution.
  38:.\src/system_stm32f0xx.c ****   *
  39:.\src/system_stm32f0xx.c ****   * 2. After each device reset the HSI (8 MHz Range) is used as system clock source.
  40:.\src/system_stm32f0xx.c ****   *    Then SystemInit() function is called, in "startup_stm32f0xx.s" file, to
  41:.\src/system_stm32f0xx.c ****   *    configure the system clock before to branch to main program.
ARM GAS  C:\Users\Johann\AppData\Local\Temp\cc47dTx4.s 			page 3


  42:.\src/system_stm32f0xx.c ****   *
  43:.\src/system_stm32f0xx.c ****   * 3. If the system clock source selected by user fails to startup, the SystemInit()
  44:.\src/system_stm32f0xx.c ****   *    function will do nothing and HSI still used as system clock source. User can 
  45:.\src/system_stm32f0xx.c ****   *    add some code to deal with this issue inside the SetSysClock() function.
  46:.\src/system_stm32f0xx.c ****   *
  47:.\src/system_stm32f0xx.c ****   * 4. The default value of HSE crystal is set to 8MHz, refer to "HSE_VALUE" define
  48:.\src/system_stm32f0xx.c ****   *    in "stm32f0xx.h" file. When HSE is used as system clock source, directly or
  49:.\src/system_stm32f0xx.c ****   *    through PLL, and you are using different crystal you have to adapt the HSE
  50:.\src/system_stm32f0xx.c ****   *    value to your own configuration.
  51:.\src/system_stm32f0xx.c ****   *
  52:.\src/system_stm32f0xx.c ****   ******************************************************************************
  53:.\src/system_stm32f0xx.c ****   * @attention
  54:.\src/system_stm32f0xx.c ****   *
  55:.\src/system_stm32f0xx.c ****   * <h2><center>&copy; COPYRIGHT 2012 STMicroelectronics</center></h2>
  56:.\src/system_stm32f0xx.c ****   *
  57:.\src/system_stm32f0xx.c ****   * Licensed under MCD-ST Liberty SW License Agreement V2, (the "License");
  58:.\src/system_stm32f0xx.c ****   * You may not use this file except in compliance with the License.
  59:.\src/system_stm32f0xx.c ****   * You may obtain a copy of the License at:
  60:.\src/system_stm32f0xx.c ****   *
  61:.\src/system_stm32f0xx.c ****   *        http://www.st.com/software_license_agreement_liberty_v2
  62:.\src/system_stm32f0xx.c ****   *
  63:.\src/system_stm32f0xx.c ****   * Unless required by applicable law or agreed to in writing, software 
  64:.\src/system_stm32f0xx.c ****   * distributed under the License is distributed on an "AS IS" BASIS, 
  65:.\src/system_stm32f0xx.c ****   * WITHOUT WARRANTIES OR CONDITIONS OF ANY KIND, either express or implied.
  66:.\src/system_stm32f0xx.c ****   * See the License for the specific language governing permissions and
  67:.\src/system_stm32f0xx.c ****   * limitations under the License.
  68:.\src/system_stm32f0xx.c ****   *
  69:.\src/system_stm32f0xx.c ****   ******************************************************************************
  70:.\src/system_stm32f0xx.c ****   */
  71:.\src/system_stm32f0xx.c **** 
  72:.\src/system_stm32f0xx.c **** /** @addtogroup CMSIS
  73:.\src/system_stm32f0xx.c ****   * @{
  74:.\src/system_stm32f0xx.c ****   */
  75:.\src/system_stm32f0xx.c **** 
  76:.\src/system_stm32f0xx.c **** /** @addtogroup stm32f0xx_system
  77:.\src/system_stm32f0xx.c ****   * @{
  78:.\src/system_stm32f0xx.c ****   */  
  79:.\src/system_stm32f0xx.c ****   
  80:.\src/system_stm32f0xx.c **** /** @addtogroup STM32F0xx_System_Private_Includes
  81:.\src/system_stm32f0xx.c ****   * @{
  82:.\src/system_stm32f0xx.c ****   */
  83:.\src/system_stm32f0xx.c **** 
  84:.\src/system_stm32f0xx.c **** #include "stm32f0xx.h"
  85:.\src/system_stm32f0xx.c **** 
  86:.\src/system_stm32f0xx.c **** /**
  87:.\src/system_stm32f0xx.c ****   * @}
  88:.\src/system_stm32f0xx.c ****   */
  89:.\src/system_stm32f0xx.c **** 
  90:.\src/system_stm32f0xx.c **** /** @addtogroup STM32F0xx_System_Private_TypesDefinitions
  91:.\src/system_stm32f0xx.c ****   * @{
  92:.\src/system_stm32f0xx.c ****   */
  93:.\src/system_stm32f0xx.c **** 
  94:.\src/system_stm32f0xx.c **** /**
  95:.\src/system_stm32f0xx.c ****   * @}
  96:.\src/system_stm32f0xx.c ****   */
  97:.\src/system_stm32f0xx.c **** 
  98:.\src/system_stm32f0xx.c **** /** @addtogroup STM32F0xx_System_Private_Defines
ARM GAS  C:\Users\Johann\AppData\Local\Temp\cc47dTx4.s 			page 4


  99:.\src/system_stm32f0xx.c ****   * @{
 100:.\src/system_stm32f0xx.c ****   */
 101:.\src/system_stm32f0xx.c **** /* Select the PLL clock source */
 102:.\src/system_stm32f0xx.c **** 
 103:.\src/system_stm32f0xx.c **** #define PLL_SOURCE_HSI        // HSI (~8MHz) used to clock the PLL, and the PLL is used as system c
 104:.\src/system_stm32f0xx.c **** //#define PLL_SOURCE_HSE        // HSE (8MHz) used to clock the PLL, and the PLL is used as system 
 105:.\src/system_stm32f0xx.c **** //#define PLL_SOURCE_HSE_BYPASS // HSE bypassed with an external clock (8MHz, coming from ST-Link) 
 106:.\src/system_stm32f0xx.c ****                               // the PLL, and the PLL is used as system clock source
 107:.\src/system_stm32f0xx.c **** 
 108:.\src/system_stm32f0xx.c **** /**
 109:.\src/system_stm32f0xx.c ****   * @}
 110:.\src/system_stm32f0xx.c ****   */
 111:.\src/system_stm32f0xx.c **** 
 112:.\src/system_stm32f0xx.c **** /** @addtogroup STM32F0xx_System_Private_Macros
 113:.\src/system_stm32f0xx.c ****   * @{
 114:.\src/system_stm32f0xx.c ****   */
 115:.\src/system_stm32f0xx.c **** 
 116:.\src/system_stm32f0xx.c **** /**
 117:.\src/system_stm32f0xx.c ****   * @}
 118:.\src/system_stm32f0xx.c ****   */
 119:.\src/system_stm32f0xx.c **** 
 120:.\src/system_stm32f0xx.c **** /** @addtogroup STM32F0xx_System_Private_Variables
 121:.\src/system_stm32f0xx.c ****   * @{
 122:.\src/system_stm32f0xx.c ****   */
 123:.\src/system_stm32f0xx.c **** uint32_t SystemCoreClock    = 48000000;
 124:.\src/system_stm32f0xx.c **** __I uint8_t AHBPrescTable[16] = {0, 0, 0, 0, 0, 0, 0, 0, 1, 2, 3, 4, 6, 7, 8, 9};
 125:.\src/system_stm32f0xx.c **** 
 126:.\src/system_stm32f0xx.c **** /**
 127:.\src/system_stm32f0xx.c ****   * @}
 128:.\src/system_stm32f0xx.c ****   */
 129:.\src/system_stm32f0xx.c **** 
 130:.\src/system_stm32f0xx.c **** /** @addtogroup STM32F0xx_System_Private_FunctionPrototypes
 131:.\src/system_stm32f0xx.c ****   * @{
 132:.\src/system_stm32f0xx.c ****   */
 133:.\src/system_stm32f0xx.c **** 
 134:.\src/system_stm32f0xx.c **** static void SetSysClock(void);
 135:.\src/system_stm32f0xx.c **** 
 136:.\src/system_stm32f0xx.c **** /**
 137:.\src/system_stm32f0xx.c ****   * @}
 138:.\src/system_stm32f0xx.c ****   */
 139:.\src/system_stm32f0xx.c **** 
 140:.\src/system_stm32f0xx.c **** /** @addtogroup STM32F0xx_System_Private_Functions
 141:.\src/system_stm32f0xx.c ****   * @{
 142:.\src/system_stm32f0xx.c ****   */
 143:.\src/system_stm32f0xx.c **** 
 144:.\src/system_stm32f0xx.c **** /**
 145:.\src/system_stm32f0xx.c ****   * @brief  Setup the microcontroller system.
 146:.\src/system_stm32f0xx.c ****   *         Initialize the Embedded Flash Interface, the PLL and update the 
 147:.\src/system_stm32f0xx.c ****   *         SystemCoreClock variable.
 148:.\src/system_stm32f0xx.c ****   * @param  None
 149:.\src/system_stm32f0xx.c ****   * @retval None
 150:.\src/system_stm32f0xx.c ****   */
 151:.\src/system_stm32f0xx.c **** void SystemInit (void)
 152:.\src/system_stm32f0xx.c **** {    
  74              		.loc 1 152 0
  75              		.cfi_startproc
 153:.\src/system_stm32f0xx.c ****   /* Set HSION bit */
ARM GAS  C:\Users\Johann\AppData\Local\Temp\cc47dTx4.s 			page 5


 154:.\src/system_stm32f0xx.c ****   RCC->CR |= (uint32_t)0x00000001;
  76              		.loc 1 154 0
  77 0000 264B     		ldr	r3, .L9	@ tmp166,
 152:.\src/system_stm32f0xx.c **** {    
  78              		.loc 1 152 0
  79 0002 13B5     		push	{r0, r1, r4, lr}	@
  80              	.LCFI0:
  81              		.cfi_def_cfa_offset 16
  82              		.cfi_offset 0, -16
  83              		.cfi_offset 1, -12
  84              		.cfi_offset 4, -8
  85              		.cfi_offset 14, -4
  86              		.loc 1 154 0
  87 0004 1968     		ldr	r1, [r3]	@ D.4809, MEM[(struct RCC_TypeDef *)1073876992B].CR
  88 0006 0122     		mov	r2, #1	@ tmp167,
  89 0008 1143     		orr	r1, r2	@ D.4810, tmp167
  90 000a 1960     		str	r1, [r3]	@ D.4810, MEM[(struct RCC_TypeDef *)1073876992B].CR
 155:.\src/system_stm32f0xx.c **** 
 156:.\src/system_stm32f0xx.c ****   /* Reset SW[1:0], HPRE[3:0], PPRE[2:0], ADCPRE and MCOSEL[2:0] bits */
 157:.\src/system_stm32f0xx.c ****   RCC->CFGR &= (uint32_t)0xF8FFB80C;
  91              		.loc 1 157 0
  92 000c 5868     		ldr	r0, [r3, #4]	@ D.4811, MEM[(struct RCC_TypeDef *)1073876992B].CFGR
  93 000e 2449     		ldr	r1, .L9+4	@ tmp170,
 158:.\src/system_stm32f0xx.c ****   
 159:.\src/system_stm32f0xx.c ****   /* Reset HSEON, CSSON and PLLON bits */
 160:.\src/system_stm32f0xx.c ****   RCC->CR &= (uint32_t)0xFEF6FFFF;
 161:.\src/system_stm32f0xx.c **** 
 162:.\src/system_stm32f0xx.c ****   /* Reset HSEBYP bit */
 163:.\src/system_stm32f0xx.c ****   RCC->CR &= (uint32_t)0xFFFBFFFF;
 164:.\src/system_stm32f0xx.c **** 
 165:.\src/system_stm32f0xx.c ****   /* Reset PLLSRC, PLLXTPRE and PLLMUL[3:0] bits */
 166:.\src/system_stm32f0xx.c ****   RCC->CFGR &= (uint32_t)0xFFC0FFFF;
 167:.\src/system_stm32f0xx.c **** 
 168:.\src/system_stm32f0xx.c ****   /* Reset PREDIV1[3:0] bits */
 169:.\src/system_stm32f0xx.c ****   RCC->CFGR2 &= (uint32_t)0xFFFFFFF0;
  94              		.loc 1 169 0
  95 0010 0F24     		mov	r4, #15	@ tmp182,
 157:.\src/system_stm32f0xx.c ****   RCC->CFGR &= (uint32_t)0xF8FFB80C;
  96              		.loc 1 157 0
  97 0012 0140     		and	r1, r0	@ D.4812, D.4811
  98 0014 5960     		str	r1, [r3, #4]	@ D.4812, MEM[(struct RCC_TypeDef *)1073876992B].CFGR
 160:.\src/system_stm32f0xx.c ****   RCC->CR &= (uint32_t)0xFEF6FFFF;
  99              		.loc 1 160 0
 100 0016 1868     		ldr	r0, [r3]	@ D.4813, MEM[(struct RCC_TypeDef *)1073876992B].CR
 101 0018 2249     		ldr	r1, .L9+8	@ tmp173,
 102 001a 0140     		and	r1, r0	@ D.4814, D.4813
 103 001c 1960     		str	r1, [r3]	@ D.4814, MEM[(struct RCC_TypeDef *)1073876992B].CR
 163:.\src/system_stm32f0xx.c ****   RCC->CR &= (uint32_t)0xFFFBFFFF;
 104              		.loc 1 163 0
 105 001e 1868     		ldr	r0, [r3]	@ D.4815, MEM[(struct RCC_TypeDef *)1073876992B].CR
 106 0020 2149     		ldr	r1, .L9+12	@ tmp176,
 107 0022 0140     		and	r1, r0	@ D.4816, D.4815
 108 0024 1960     		str	r1, [r3]	@ D.4816, MEM[(struct RCC_TypeDef *)1073876992B].CR
 166:.\src/system_stm32f0xx.c ****   RCC->CFGR &= (uint32_t)0xFFC0FFFF;
 109              		.loc 1 166 0
 110 0026 5868     		ldr	r0, [r3, #4]	@ D.4817, MEM[(struct RCC_TypeDef *)1073876992B].CFGR
 111 0028 2049     		ldr	r1, .L9+16	@ tmp179,
ARM GAS  C:\Users\Johann\AppData\Local\Temp\cc47dTx4.s 			page 6


 112 002a 0840     		and	r0, r1	@ D.4818, tmp179
 113 002c 5860     		str	r0, [r3, #4]	@ D.4818, MEM[(struct RCC_TypeDef *)1073876992B].CFGR
 114              		.loc 1 169 0
 115 002e D86A     		ldr	r0, [r3, #44]	@ D.4819, MEM[(struct RCC_TypeDef *)1073876992B].CFGR2
 116 0030 A043     		bic	r0, r4	@ D.4820, tmp182
 117 0032 D862     		str	r0, [r3, #44]	@ D.4820, MEM[(struct RCC_TypeDef *)1073876992B].CFGR2
 170:.\src/system_stm32f0xx.c **** 
 171:.\src/system_stm32f0xx.c ****   /* Reset USARTSW[1:0], I2CSW, CECSW and ADCSW bits */
 172:.\src/system_stm32f0xx.c ****   RCC->CFGR3 &= (uint32_t)0xFFFFFEAC;
 118              		.loc 1 172 0
 119 0034 1C6B     		ldr	r4, [r3, #48]	@ D.4821, MEM[(struct RCC_TypeDef *)1073876992B].CFGR3
 120 0036 1E48     		ldr	r0, .L9+20	@ tmp185,
 121 0038 2040     		and	r0, r4	@ D.4822, D.4821
 122 003a 1863     		str	r0, [r3, #48]	@ D.4822, MEM[(struct RCC_TypeDef *)1073876992B].CFGR3
 173:.\src/system_stm32f0xx.c **** 
 174:.\src/system_stm32f0xx.c ****   /* Reset HSI14 bit */
 175:.\src/system_stm32f0xx.c ****   RCC->CR2 &= (uint32_t)0xFFFFFFFE;
 123              		.loc 1 175 0
 124 003c 586B     		ldr	r0, [r3, #52]	@ D.4823, MEM[(struct RCC_TypeDef *)1073876992B].CR2
 125 003e 9043     		bic	r0, r2	@ D.4823, tmp167
 176:.\src/system_stm32f0xx.c **** 
 177:.\src/system_stm32f0xx.c ****   /* Disable all interrupts */
 178:.\src/system_stm32f0xx.c ****   RCC->CIR = 0x00000000;
 126              		.loc 1 178 0
 127 0040 0022     		mov	r2, #0	@ tmp191,
 175:.\src/system_stm32f0xx.c ****   RCC->CR2 &= (uint32_t)0xFFFFFFFE;
 128              		.loc 1 175 0
 129 0042 5863     		str	r0, [r3, #52]	@ D.4824, MEM[(struct RCC_TypeDef *)1073876992B].CR2
 130              		.loc 1 178 0
 131 0044 9A60     		str	r2, [r3, #8]	@ tmp191, MEM[(struct RCC_TypeDef *)1073876992B].CIR
 132              	.LBB4:
 133              	.LBB5:
 179:.\src/system_stm32f0xx.c **** 
 180:.\src/system_stm32f0xx.c ****   /* Configure the System clock frequency, AHB/APBx prescalers and Flash settings */
 181:.\src/system_stm32f0xx.c ****   SetSysClock();
 182:.\src/system_stm32f0xx.c **** }
 183:.\src/system_stm32f0xx.c **** 
 184:.\src/system_stm32f0xx.c **** /**
 185:.\src/system_stm32f0xx.c ****   * @brief  Update SystemCoreClock according to Clock Register Values
 186:.\src/system_stm32f0xx.c ****   *         The SystemCoreClock variable contains the core clock (HCLK), it can
 187:.\src/system_stm32f0xx.c ****   *         be used by the user application to setup the SysTick timer or configure
 188:.\src/system_stm32f0xx.c ****   *         other parameters.
 189:.\src/system_stm32f0xx.c ****   *
 190:.\src/system_stm32f0xx.c ****   * @note   Each time the core clock (HCLK) changes, this function must be called
 191:.\src/system_stm32f0xx.c ****   *         to update SystemCoreClock variable value. Otherwise, any configuration
 192:.\src/system_stm32f0xx.c ****   *         based on this variable will be incorrect.         
 193:.\src/system_stm32f0xx.c ****   *
 194:.\src/system_stm32f0xx.c ****   * @note   - The system frequency computed by this function is not the real 
 195:.\src/system_stm32f0xx.c ****   *           frequency in the chip. It is calculated based on the predefined 
 196:.\src/system_stm32f0xx.c ****   *           constant and the selected clock source:
 197:.\src/system_stm32f0xx.c ****   *
 198:.\src/system_stm32f0xx.c ****   *           - If SYSCLK source is HSI, SystemCoreClock will contain the HSI_VALUE(*)
 199:.\src/system_stm32f0xx.c ****   *                                              
 200:.\src/system_stm32f0xx.c ****   *           - If SYSCLK source is HSE, SystemCoreClock will contain the HSE_VALUE(**)
 201:.\src/system_stm32f0xx.c ****   *                          
 202:.\src/system_stm32f0xx.c ****   *           - If SYSCLK source is PLL, SystemCoreClock will contain the HSE_VALUE(**)
 203:.\src/system_stm32f0xx.c ****   *             or HSI_VALUE(*) multiplied/divided by the PLL factors.
ARM GAS  C:\Users\Johann\AppData\Local\Temp\cc47dTx4.s 			page 7


 204:.\src/system_stm32f0xx.c ****   *
 205:.\src/system_stm32f0xx.c ****   *         (*) HSI_VALUE is a constant defined in stm32f0xx.h file (default value
 206:.\src/system_stm32f0xx.c ****   *             8 MHz) but the real value may vary depending on the variations
 207:.\src/system_stm32f0xx.c ****   *             in voltage and temperature.
 208:.\src/system_stm32f0xx.c ****   *
 209:.\src/system_stm32f0xx.c ****   *         (**) HSE_VALUE is a constant defined in stm32f0xx.h file (default value
 210:.\src/system_stm32f0xx.c ****   *              8 MHz), user has to ensure that HSE_VALUE is same as the real
 211:.\src/system_stm32f0xx.c ****   *              frequency of the crystal used. Otherwise, this function may
 212:.\src/system_stm32f0xx.c ****   *              have wrong result.
 213:.\src/system_stm32f0xx.c ****   *
 214:.\src/system_stm32f0xx.c ****   *         - The result of this function could be not correct when using fractional
 215:.\src/system_stm32f0xx.c ****   *           value for HSE crystal.
 216:.\src/system_stm32f0xx.c ****   * @param  None
 217:.\src/system_stm32f0xx.c ****   * @retval None
 218:.\src/system_stm32f0xx.c ****   */
 219:.\src/system_stm32f0xx.c **** void SystemCoreClockUpdate (void)
 220:.\src/system_stm32f0xx.c **** {
 221:.\src/system_stm32f0xx.c ****   uint32_t tmp = 0, pllmull = 0, pllsource = 0, prediv1factor = 0;
 222:.\src/system_stm32f0xx.c **** 
 223:.\src/system_stm32f0xx.c ****   /* Get SYSCLK source -------------------------------------------------------*/
 224:.\src/system_stm32f0xx.c ****   tmp = RCC->CFGR & RCC_CFGR_SWS;
 225:.\src/system_stm32f0xx.c ****   
 226:.\src/system_stm32f0xx.c ****   switch (tmp)
 227:.\src/system_stm32f0xx.c ****   {
 228:.\src/system_stm32f0xx.c ****     case 0x00:  /* HSI used as system clock */
 229:.\src/system_stm32f0xx.c ****       SystemCoreClock = HSI_VALUE;
 230:.\src/system_stm32f0xx.c ****       break;
 231:.\src/system_stm32f0xx.c ****     case 0x04:  /* HSE used as system clock */
 232:.\src/system_stm32f0xx.c ****       SystemCoreClock = HSE_VALUE;
 233:.\src/system_stm32f0xx.c ****       break;
 234:.\src/system_stm32f0xx.c ****     case 0x08:  /* PLL used as system clock */
 235:.\src/system_stm32f0xx.c ****       /* Get PLL clock source and multiplication factor ----------------------*/
 236:.\src/system_stm32f0xx.c ****       pllmull = RCC->CFGR & RCC_CFGR_PLLMULL;
 237:.\src/system_stm32f0xx.c ****       pllsource = RCC->CFGR & RCC_CFGR_PLLSRC;
 238:.\src/system_stm32f0xx.c ****       pllmull = ( pllmull >> 18) + 2;
 239:.\src/system_stm32f0xx.c ****       
 240:.\src/system_stm32f0xx.c ****       if (pllsource == 0x00)
 241:.\src/system_stm32f0xx.c ****       {
 242:.\src/system_stm32f0xx.c ****         /* HSI oscillator clock divided by 2 selected as PLL clock entry */
 243:.\src/system_stm32f0xx.c ****         SystemCoreClock = (HSI_VALUE >> 1) * pllmull;
 244:.\src/system_stm32f0xx.c ****       }
 245:.\src/system_stm32f0xx.c ****       else
 246:.\src/system_stm32f0xx.c ****       {
 247:.\src/system_stm32f0xx.c ****         prediv1factor = (RCC->CFGR2 & RCC_CFGR2_PREDIV1) + 1;
 248:.\src/system_stm32f0xx.c ****         /* HSE oscillator clock selected as PREDIV1 clock entry */
 249:.\src/system_stm32f0xx.c ****         SystemCoreClock = (HSE_VALUE / prediv1factor) * pllmull; 
 250:.\src/system_stm32f0xx.c ****       }      
 251:.\src/system_stm32f0xx.c ****       break;
 252:.\src/system_stm32f0xx.c ****     default: /* HSI used as system clock */
 253:.\src/system_stm32f0xx.c ****       SystemCoreClock = HSI_VALUE;
 254:.\src/system_stm32f0xx.c ****       break;
 255:.\src/system_stm32f0xx.c ****   }
 256:.\src/system_stm32f0xx.c ****   /* Compute HCLK clock frequency ----------------*/
 257:.\src/system_stm32f0xx.c ****   /* Get HCLK prescaler */
 258:.\src/system_stm32f0xx.c ****   tmp = AHBPrescTable[((RCC->CFGR & RCC_CFGR_HPRE) >> 4)];
 259:.\src/system_stm32f0xx.c ****   /* HCLK clock frequency */
 260:.\src/system_stm32f0xx.c ****   SystemCoreClock >>= tmp;  
ARM GAS  C:\Users\Johann\AppData\Local\Temp\cc47dTx4.s 			page 8


 261:.\src/system_stm32f0xx.c **** }
 262:.\src/system_stm32f0xx.c **** 
 263:.\src/system_stm32f0xx.c **** /**
 264:.\src/system_stm32f0xx.c ****   * @brief  Configures the System clock frequency, AHB/APBx prescalers and Flash
 265:.\src/system_stm32f0xx.c ****   *         settings.
 266:.\src/system_stm32f0xx.c ****   * @note   This function should be called only once the RCC clock configuration
 267:.\src/system_stm32f0xx.c ****   *         is reset to the default reset state (done in SystemInit() function).
 268:.\src/system_stm32f0xx.c ****   * @param  None
 269:.\src/system_stm32f0xx.c ****   * @retval None
 270:.\src/system_stm32f0xx.c ****   */
 271:.\src/system_stm32f0xx.c **** static void SetSysClock(void)
 272:.\src/system_stm32f0xx.c **** {
 273:.\src/system_stm32f0xx.c ****   __IO uint32_t StartUpCounter = 0, HSEStatus = 0;
 134              		.loc 1 273 0
 135 0046 0092     		str	r2, [sp]	@ tmp191, StartUpCounter
 136              	.LVL0:
 137 0048 0192     		str	r2, [sp, #4]	@ tmp191, HSEStatus
 138              	.LVL1:
 274:.\src/system_stm32f0xx.c ****   
 275:.\src/system_stm32f0xx.c ****   /* SYSCLK, HCLK, PCLK configuration ----------------------------------------*/
 276:.\src/system_stm32f0xx.c **** #if defined (PLL_SOURCE_HSI)
 277:.\src/system_stm32f0xx.c ****   /* At this stage the HSI is already enabled */
 278:.\src/system_stm32f0xx.c **** 
 279:.\src/system_stm32f0xx.c ****   /* Enable Prefetch Buffer and set Flash Latency */
 280:.\src/system_stm32f0xx.c ****   FLASH->ACR = FLASH_ACR_PRFTBE | FLASH_ACR_LATENCY;
 139              		.loc 1 280 0
 140 004a 1A4A     		ldr	r2, .L9+24	@ tmp194,
 141 004c 1120     		mov	r0, #17	@ tmp195,
 142 004e 1060     		str	r0, [r2]	@ tmp195, MEM[(struct FLASH_TypeDef *)1073881088B].ACR
 281:.\src/system_stm32f0xx.c ****  
 282:.\src/system_stm32f0xx.c ****   /* HCLK = SYSCLK */
 283:.\src/system_stm32f0xx.c ****   RCC->CFGR |= (uint32_t)RCC_CFGR_HPRE_DIV1;
 143              		.loc 1 283 0
 144 0050 5A68     		ldr	r2, [r3, #4]	@ D.4866, MEM[(struct RCC_TypeDef *)1073876992B].CFGR
 145 0052 5A60     		str	r2, [r3, #4]	@ D.4866, MEM[(struct RCC_TypeDef *)1073876992B].CFGR
 284:.\src/system_stm32f0xx.c ****       
 285:.\src/system_stm32f0xx.c ****   /* PCLK = HCLK */
 286:.\src/system_stm32f0xx.c ****   RCC->CFGR |= (uint32_t)RCC_CFGR_PPRE_DIV1;
 146              		.loc 1 286 0
 147 0054 5A68     		ldr	r2, [r3, #4]	@ D.4865, MEM[(struct RCC_TypeDef *)1073876992B].CFGR
 148 0056 5A60     		str	r2, [r3, #4]	@ D.4865, MEM[(struct RCC_TypeDef *)1073876992B].CFGR
 287:.\src/system_stm32f0xx.c **** 
 288:.\src/system_stm32f0xx.c ****   /* PLL configuration = (HSI/2) * 12 = ~48 MHz */
 289:.\src/system_stm32f0xx.c ****   RCC->CFGR &= (uint32_t)((uint32_t)~(RCC_CFGR_PLLSRC | RCC_CFGR_PLLXTPRE | RCC_CFGR_PLLMULL));
 149              		.loc 1 289 0
 150 0058 5A68     		ldr	r2, [r3, #4]	@ D.4864, MEM[(struct RCC_TypeDef *)1073876992B].CFGR
 151 005a 1140     		and	r1, r2	@ D.4863, D.4864
 152 005c 5960     		str	r1, [r3, #4]	@ D.4863, MEM[(struct RCC_TypeDef *)1073876992B].CFGR
 290:.\src/system_stm32f0xx.c ****   RCC->CFGR |= (uint32_t)(RCC_CFGR_PLLSRC_HSI_Div2 | RCC_CFGR_PLLXTPRE_PREDIV1 | RCC_CFGR_PLLMULL12
 153              		.loc 1 290 0
 154 005e 5968     		ldr	r1, [r3, #4]	@ D.4862, MEM[(struct RCC_TypeDef *)1073876992B].CFGR
 155 0060 A022     		mov	r2, #160	@ tmp225,
 156 0062 9203     		lsl	r2, r2, #14	@ tmp204, tmp225,
 157 0064 0A43     		orr	r2, r1	@ D.4861, D.4862
 158 0066 5A60     		str	r2, [r3, #4]	@ D.4861, MEM[(struct RCC_TypeDef *)1073876992B].CFGR
 291:.\src/system_stm32f0xx.c ****             
 292:.\src/system_stm32f0xx.c ****   /* Enable PLL */
ARM GAS  C:\Users\Johann\AppData\Local\Temp\cc47dTx4.s 			page 9


 293:.\src/system_stm32f0xx.c ****   RCC->CR |= RCC_CR_PLLON;
 159              		.loc 1 293 0
 160 0068 1968     		ldr	r1, [r3]	@ D.4860, MEM[(struct RCC_TypeDef *)1073876992B].CR
 161 006a 8022     		mov	r2, #128	@ tmp226,
 162 006c 8240     		lsl	r2, r2, r0	@ tmp207, tmp226,
 163 006e 0A43     		orr	r2, r1	@ D.4859, D.4860
 294:.\src/system_stm32f0xx.c **** 
 295:.\src/system_stm32f0xx.c ****   /* Wait till PLL is ready */
 296:.\src/system_stm32f0xx.c ****   while((RCC->CR & RCC_CR_PLLRDY) == 0)
 164              		.loc 1 296 0
 165 0070 8021     		mov	r1, #128	@ tmp227,
 293:.\src/system_stm32f0xx.c ****   RCC->CR |= RCC_CR_PLLON;
 166              		.loc 1 293 0
 167 0072 1A60     		str	r2, [r3]	@ D.4859, MEM[(struct RCC_TypeDef *)1073876992B].CR
 168              		.loc 1 296 0
 169 0074 8904     		lsl	r1, r1, #18	@ tmp224, tmp227,
 170              	.L2:
 171 0076 1868     		ldr	r0, [r3]	@ D.4858, MEM[(struct RCC_TypeDef *)1073876992B].CR
 172 0078 084A     		ldr	r2, .L9	@ tmp209,
 173 007a 0842     		tst	r0, r1	@ D.4858, tmp224
 174 007c FBD0     		beq	.L2	@,
 297:.\src/system_stm32f0xx.c ****   {
 298:.\src/system_stm32f0xx.c ****   }
 299:.\src/system_stm32f0xx.c **** 
 300:.\src/system_stm32f0xx.c ****   /* Select PLL as system clock source */
 301:.\src/system_stm32f0xx.c ****   RCC->CFGR &= (uint32_t)((uint32_t)~(RCC_CFGR_SW));
 175              		.loc 1 301 0
 176 007e 5168     		ldr	r1, [r2, #4]	@ D.4856, MEM[(struct RCC_TypeDef *)1073876992B].CFGR
 177 0080 0320     		mov	r0, #3	@ tmp213,
 178 0082 8143     		bic	r1, r0	@ D.4855, tmp213
 179 0084 5160     		str	r1, [r2, #4]	@ D.4855, MEM[(struct RCC_TypeDef *)1073876992B].CFGR
 302:.\src/system_stm32f0xx.c ****   RCC->CFGR |= (uint32_t)RCC_CFGR_SW_PLL;    
 180              		.loc 1 302 0
 181 0086 5168     		ldr	r1, [r2, #4]	@ D.4854, MEM[(struct RCC_TypeDef *)1073876992B].CFGR
 182 0088 0220     		mov	r0, #2	@ tmp216,
 183 008a 0143     		orr	r1, r0	@ D.4853, tmp216
 184 008c 5160     		str	r1, [r2, #4]	@ D.4853, MEM[(struct RCC_TypeDef *)1073876992B].CFGR
 303:.\src/system_stm32f0xx.c **** 
 304:.\src/system_stm32f0xx.c ****   /* Wait till PLL is used as system clock source */
 305:.\src/system_stm32f0xx.c ****   while ((RCC->CFGR & (uint32_t)RCC_CFGR_SWS) != (uint32_t)RCC_CFGR_SWS_PLL)
 185              		.loc 1 305 0
 186 008e 0C21     		mov	r1, #12	@ tmp222,
 187              	.L3:
 188 0090 5A68     		ldr	r2, [r3, #4]	@ D.4852, MEM[(struct RCC_TypeDef *)1073876992B].CFGR
 189 0092 0A40     		and	r2, r1	@ tmp219, tmp222
 190 0094 082A     		cmp	r2, #8	@ tmp219,
 191 0096 FBD1     		bne	.L3	@,
 192              	.LBE5:
 193              	.LBE4:
 182:.\src/system_stm32f0xx.c **** }
 194              		.loc 1 182 0
 195              		@ sp needed for prologue	@
 196 0098 13BD     		pop	{r0, r1, r4, pc}
 197              	.L10:
 198 009a C046     		.align	2
 199              	.L9:
 200 009c 00100240 		.word	1073876992
ARM GAS  C:\Users\Johann\AppData\Local\Temp\cc47dTx4.s 			page 10


 201 00a0 0CB8FFF8 		.word	-117458932
 202 00a4 FFFFF6FE 		.word	-17367041
 203 00a8 FFFFFBFF 		.word	-262145
 204 00ac FFFFC0FF 		.word	-4128769
 205 00b0 ACFEFFFF 		.word	-340
 206 00b4 00200240 		.word	1073881088
 207              		.cfi_endproc
 208              	.LFE32:
 209              		.size	SystemInit, .-SystemInit
 210              		.global	__aeabi_uidiv
 211              		.align	1
 212              		.global	SystemCoreClockUpdate
 213              		.code	16
 214              		.thumb_func
 215              		.type	SystemCoreClockUpdate, %function
 216              	SystemCoreClockUpdate:
 217              	.LFB33:
 220:.\src/system_stm32f0xx.c **** {
 218              		.loc 1 220 0
 219              		.cfi_startproc
 220              	.LVL2:
 221 00b8 70B5     		push	{r4, r5, r6, lr}	@
 222              	.LCFI1:
 223              		.cfi_def_cfa_offset 16
 224              		.cfi_offset 4, -16
 225              		.cfi_offset 5, -12
 226              		.cfi_offset 6, -8
 227              		.cfi_offset 14, -4
 224:.\src/system_stm32f0xx.c ****   tmp = RCC->CFGR & RCC_CFGR_SWS;
 228              		.loc 1 224 0
 229 00ba 144C     		ldr	r4, .L19	@ tmp155,
 230 00bc 0C23     		mov	r3, #12	@ tmp157,
 231 00be 6268     		ldr	r2, [r4, #4]	@ D.4789, MEM[(struct RCC_TypeDef *)1073876992B].CFGR
 232              	.LVL3:
 233 00c0 134D     		ldr	r5, .L19+4	@ tmp195,
 234 00c2 1340     		and	r3, r2	@ tmp156, D.4789
 235              	.LVL4:
 226:.\src/system_stm32f0xx.c ****   switch (tmp)
 236              		.loc 1 226 0
 237 00c4 042B     		cmp	r3, #4	@ tmp156,
 238 00c6 01D0     		beq	.L14	@,
 239 00c8 082B     		cmp	r3, #8	@ tmp156,
 240 00ca 02D0     		beq	.L15	@,
 241              	.L14:
 232:.\src/system_stm32f0xx.c ****       SystemCoreClock = HSE_VALUE;
 242              		.loc 1 232 0
 243 00cc 114B     		ldr	r3, .L19+8	@ tmp161,
 244              	.LVL5:
 245 00ce 2B60     		str	r3, [r5]	@ tmp161, SystemCoreClock
 233:.\src/system_stm32f0xx.c ****       break;
 246              		.loc 1 233 0
 247 00d0 12E0     		b	.L16	@
 248              	.LVL6:
 249              	.L15:
 236:.\src/system_stm32f0xx.c ****       pllmull = RCC->CFGR & RCC_CFGR_PLLMULL;
 250              		.loc 1 236 0
 251 00d2 6668     		ldr	r6, [r4, #4]	@ D.4790, MEM[(struct RCC_TypeDef *)1073876992B].CFGR
ARM GAS  C:\Users\Johann\AppData\Local\Temp\cc47dTx4.s 			page 11


 252              	.LVL7:
 237:.\src/system_stm32f0xx.c ****       pllsource = RCC->CFGR & RCC_CFGR_PLLSRC;
 253              		.loc 1 237 0
 254 00d4 6368     		ldr	r3, [r4, #4]	@ D.4791, MEM[(struct RCC_TypeDef *)1073876992B].CFGR
 255              	.LVL8:
 236:.\src/system_stm32f0xx.c ****       pllmull = RCC->CFGR & RCC_CFGR_PLLMULL;
 256              		.loc 1 236 0
 257 00d6 B602     		lsl	r6, r6, #10	@ tmp164, D.4790,
 258              	.LVL9:
 238:.\src/system_stm32f0xx.c ****       pllmull = ( pllmull >> 18) + 2;
 259              		.loc 1 238 0
 260 00d8 360F     		lsr	r6, r6, #28	@ D.4792, tmp164,
 261 00da 0236     		add	r6, r6, #2	@ pllmull,
 262              	.LVL10:
 240:.\src/system_stm32f0xx.c ****       if (pllsource == 0x00)
 263              		.loc 1 240 0
 264 00dc D903     		lsl	r1, r3, #15	@, D.4791,
 265 00de 02D4     		bmi	.L17	@,
 243:.\src/system_stm32f0xx.c ****         SystemCoreClock = (HSI_VALUE >> 1) * pllmull;
 266              		.loc 1 243 0
 267 00e0 0D4B     		ldr	r3, .L19+12	@ tmp170,
 268              	.LVL11:
 269 00e2 5E43     		mul	r6, r3	@ tmp169, tmp170
 270              	.LVL12:
 271 00e4 07E0     		b	.L18	@
 272              	.LVL13:
 273              	.L17:
 247:.\src/system_stm32f0xx.c ****         prediv1factor = (RCC->CFGR2 & RCC_CFGR2_PREDIV1) + 1;
 274              		.loc 1 247 0
 275 00e6 E16A     		ldr	r1, [r4, #44]	@ D.4797, MEM[(struct RCC_TypeDef *)1073876992B].CFGR2
 276              	.LVL14:
 277 00e8 0F23     		mov	r3, #15	@ tmp174,
 278              	.LVL15:
 279 00ea 1940     		and	r1, r3	@ tmp173, tmp174
 280              	.LVL16:
 281 00ec 0131     		add	r1, r1, #1	@ tmp175,
 282              	.LVL17:
 249:.\src/system_stm32f0xx.c ****         SystemCoreClock = (HSE_VALUE / prediv1factor) * pllmull; 
 283              		.loc 1 249 0
 284 00ee 0948     		ldr	r0, .L19+8	@,
 285 00f0 FFF7FEFF 		bl	__aeabi_uidiv	@
 286              	.LVL18:
 287 00f4 4643     		mul	r6, r0	@ tmp180, tmp179
 288              	.LVL19:
 289              	.L18:
 290 00f6 2E60     		str	r6, [r5]	@ tmp180, SystemCoreClock
 291              	.L16:
 258:.\src/system_stm32f0xx.c ****   tmp = AHBPrescTable[((RCC->CFGR & RCC_CFGR_HPRE) >> 4)];
 292              		.loc 1 258 0
 293 00f8 6268     		ldr	r2, [r4, #4]	@ D.4801, MEM[(struct RCC_TypeDef *)1073876992B].CFGR
 294 00fa 054B     		ldr	r3, .L19+4	@ tmp186,
 295 00fc 1206     		lsl	r2, r2, #24	@ tmp184, D.4801,
 296 00fe 120F     		lsr	r2, r2, #28	@ D.4803, tmp184,
 297 0100 9A18     		add	r2, r3, r2	@ tmp187, tmp186, D.4803
 298 0102 1279     		ldrb	r2, [r2, #4]	@ tmp189,
 299              	.LVL20:
 260:.\src/system_stm32f0xx.c ****   SystemCoreClock >>= tmp;  
ARM GAS  C:\Users\Johann\AppData\Local\Temp\cc47dTx4.s 			page 12


 300              		.loc 1 260 0
 301 0104 1968     		ldr	r1, [r3]	@, SystemCoreClock
 261:.\src/system_stm32f0xx.c **** }
 302              		.loc 1 261 0
 303              		@ sp needed for prologue	@
 260:.\src/system_stm32f0xx.c ****   SystemCoreClock >>= tmp;  
 304              		.loc 1 260 0
 305 0106 D140     		lsr	r1, r1, r2	@,, tmp189
 306 0108 1960     		str	r1, [r3]	@ tmp192, SystemCoreClock
 261:.\src/system_stm32f0xx.c **** }
 307              		.loc 1 261 0
 308 010a 70BD     		pop	{r4, r5, r6, pc}
 309              	.L20:
 310              		.align	2
 311              	.L19:
 312 010c 00100240 		.word	1073876992
 313 0110 00000000 		.word	.LANCHOR0
 314 0114 00127A00 		.word	8000000
 315 0118 00093D00 		.word	4000000
 316              		.cfi_endproc
 317              	.LFE33:
 318              		.size	SystemCoreClockUpdate, .-SystemCoreClockUpdate
 319              		.global	AHBPrescTable
 320              		.global	SystemCoreClock
 321              		.data
 322              		.align	2
 323              		.set	.LANCHOR0,. + 0
 324              		.type	SystemCoreClock, %object
 325              		.size	SystemCoreClock, 4
 326              	SystemCoreClock:
 327 0000 006CDC02 		.word	48000000
 328              		.type	AHBPrescTable, %object
 329              		.size	AHBPrescTable, 16
 330              	AHBPrescTable:
 331 0004 00       		.byte	0
 332 0005 00       		.byte	0
 333 0006 00       		.byte	0
 334 0007 00       		.byte	0
 335 0008 00       		.byte	0
 336 0009 00       		.byte	0
 337 000a 00       		.byte	0
 338 000b 00       		.byte	0
 339 000c 01       		.byte	1
 340 000d 02       		.byte	2
 341 000e 03       		.byte	3
 342 000f 04       		.byte	4
 343 0010 06       		.byte	6
 344 0011 07       		.byte	7
 345 0012 08       		.byte	8
 346 0013 09       		.byte	9
 347              		.text
 348              	.Letext0:
 349              		.file 2 "c:/yagarto-20121222/lib/gcc/../../arm-none-eabi/sys-include/stdint.h"
 350              		.file 3 "..\\STM32F0-Discovery_FW_V1.0.0\\Libraries\\CMSIS\\ST\\STM32F0xx\\Include/stm32f0xx.h"